
Drivers.elf:     file format elf32-littlearm

Sections:
Idx Name          Size      VMA       LMA       File off  Algn
  0 .isr_vector   00000130  08000000  08000000  00010000  2**0
                  CONTENTS, ALLOC, LOAD, READONLY, DATA
  1 .text         00000ad0  08000130  08000130  00010130  2**2
                  CONTENTS, ALLOC, LOAD, READONLY, CODE
  2 .rodata       0000002c  08000c00  08000c00  00010c00  2**2
                  CONTENTS, ALLOC, LOAD, READONLY, DATA
  3 .ARM.extab    00000000  08000c2c  08000c2c  00020020  2**0
                  CONTENTS
  4 .ARM          00000000  08000c2c  08000c2c  00020020  2**0
                  CONTENTS
  5 .preinit_array 00000000  08000c2c  08000c2c  00020020  2**0
                  CONTENTS, ALLOC, LOAD, DATA
  6 .init_array   00000004  08000c2c  08000c2c  00010c2c  2**2
                  CONTENTS, ALLOC, LOAD, DATA
  7 .fini_array   00000004  08000c30  08000c30  00010c30  2**2
                  CONTENTS, ALLOC, LOAD, DATA
  8 .data         00000020  20000000  08000c34  00020000  2**2
                  CONTENTS, ALLOC, LOAD, DATA
  9 .bss          00000020  20000020  08000c54  00020020  2**2
                  ALLOC
 10 ._user_heap_stack 00000600  20000040  08000c54  00020040  2**0
                  ALLOC
 11 .ARM.attributes 00000029  00000000  00000000  00020020  2**0
                  CONTENTS, READONLY
 12 .debug_info   000030eb  00000000  00000000  00020049  2**0
                  CONTENTS, READONLY, DEBUGGING
 13 .debug_abbrev 00000817  00000000  00000000  00023134  2**0
                  CONTENTS, READONLY, DEBUGGING
 14 .debug_loc    0000077c  00000000  00000000  0002394b  2**0
                  CONTENTS, READONLY, DEBUGGING
 15 .debug_aranges 00000150  00000000  00000000  000240c8  2**3
                  CONTENTS, READONLY, DEBUGGING
 16 .debug_ranges 00000108  00000000  00000000  00024218  2**3
                  CONTENTS, READONLY, DEBUGGING
 17 .debug_macro  00002607  00000000  00000000  00024320  2**0
                  CONTENTS, READONLY, DEBUGGING
 18 .debug_line   00001c7b  00000000  00000000  00026927  2**0
                  CONTENTS, READONLY, DEBUGGING
 19 .debug_str    00008d27  00000000  00000000  000285a2  2**0
                  CONTENTS, READONLY, DEBUGGING
 20 .comment      0000007b  00000000  00000000  000312c9  2**0
                  CONTENTS, READONLY
 21 .debug_frame  000003f0  00000000  00000000  00031344  2**2
                  CONTENTS, READONLY, DEBUGGING

Disassembly of section .text:

08000130 <__do_global_dtors_aux>:
 8000130:	b510      	push	{r4, lr}
 8000132:	4c05      	ldr	r4, [pc, #20]	; (8000148 <__do_global_dtors_aux+0x18>)
 8000134:	7823      	ldrb	r3, [r4, #0]
 8000136:	b933      	cbnz	r3, 8000146 <__do_global_dtors_aux+0x16>
 8000138:	4b04      	ldr	r3, [pc, #16]	; (800014c <__do_global_dtors_aux+0x1c>)
 800013a:	b113      	cbz	r3, 8000142 <__do_global_dtors_aux+0x12>
 800013c:	4804      	ldr	r0, [pc, #16]	; (8000150 <__do_global_dtors_aux+0x20>)
 800013e:	f3af 8000 	nop.w
 8000142:	2301      	movs	r3, #1
 8000144:	7023      	strb	r3, [r4, #0]
 8000146:	bd10      	pop	{r4, pc}
 8000148:	20000020 	.word	0x20000020
 800014c:	00000000 	.word	0x00000000
 8000150:	08000be8 	.word	0x08000be8

08000154 <frame_dummy>:
 8000154:	b508      	push	{r3, lr}
 8000156:	4b03      	ldr	r3, [pc, #12]	; (8000164 <frame_dummy+0x10>)
 8000158:	b11b      	cbz	r3, 8000162 <frame_dummy+0xe>
 800015a:	4903      	ldr	r1, [pc, #12]	; (8000168 <frame_dummy+0x14>)
 800015c:	4803      	ldr	r0, [pc, #12]	; (800016c <frame_dummy+0x18>)
 800015e:	f3af 8000 	nop.w
 8000162:	bd08      	pop	{r3, pc}
 8000164:	00000000 	.word	0x00000000
 8000168:	20000024 	.word	0x20000024
 800016c:	08000be8 	.word	0x08000be8

08000170 <KEYBAD_INIT>:
		for(j=0;j<1000;j++);
	}
}

void KEYBAD_INIT()
{
 8000170:	b580      	push	{r7, lr}
 8000172:	af00      	add	r7, sp, #0
	PinCfg.GPIO_PinNumber=R0;
 8000174:	4b37      	ldr	r3, [pc, #220]	; (8000254 <KEYBAD_INIT+0xe4>)
 8000176:	2201      	movs	r2, #1
 8000178:	801a      	strh	r2, [r3, #0]
	PinCfg.GPIO_Mode = GPIO_mode_OUTPUT_PP;
 800017a:	4b36      	ldr	r3, [pc, #216]	; (8000254 <KEYBAD_INIT+0xe4>)
 800017c:	2204      	movs	r2, #4
 800017e:	709a      	strb	r2, [r3, #2]
	PinCfg.GPIO_Output_Speed = GPIO_speed_OUTPUT_10M;
 8000180:	4b34      	ldr	r3, [pc, #208]	; (8000254 <KEYBAD_INIT+0xe4>)
 8000182:	2201      	movs	r2, #1
 8000184:	70da      	strb	r2, [r3, #3]
	MCAL_GPIO_Init(KEYPAD_PORT,&PinCfg);
 8000186:	4933      	ldr	r1, [pc, #204]	; (8000254 <KEYBAD_INIT+0xe4>)
 8000188:	4833      	ldr	r0, [pc, #204]	; (8000258 <KEYBAD_INIT+0xe8>)
 800018a:	f000 fc4d 	bl	8000a28 <MCAL_GPIO_Init>
	//	DATADir_KEYPAD_PORT &= ~((1<<R0) | (1<<R1) | (1<<R2) | (1<<R3));
	//	DATADir_KEYPAD_PORT |=  ((1<<C0) | (1<<C1) | (1<<C2) | (1<<C3));
	//	KEYPAD_PORT = 0xFF;

	PinCfg.GPIO_PinNumber=R1;
 800018e:	4b31      	ldr	r3, [pc, #196]	; (8000254 <KEYBAD_INIT+0xe4>)
 8000190:	2202      	movs	r2, #2
 8000192:	801a      	strh	r2, [r3, #0]
	PinCfg.GPIO_Mode = GPIO_mode_OUTPUT_PP;
 8000194:	4b2f      	ldr	r3, [pc, #188]	; (8000254 <KEYBAD_INIT+0xe4>)
 8000196:	2204      	movs	r2, #4
 8000198:	709a      	strb	r2, [r3, #2]
	PinCfg.GPIO_Output_Speed = GPIO_speed_OUTPUT_10M;
 800019a:	4b2e      	ldr	r3, [pc, #184]	; (8000254 <KEYBAD_INIT+0xe4>)
 800019c:	2201      	movs	r2, #1
 800019e:	70da      	strb	r2, [r3, #3]
	MCAL_GPIO_Init(KEYPAD_PORT,&PinCfg);
 80001a0:	492c      	ldr	r1, [pc, #176]	; (8000254 <KEYBAD_INIT+0xe4>)
 80001a2:	482d      	ldr	r0, [pc, #180]	; (8000258 <KEYBAD_INIT+0xe8>)
 80001a4:	f000 fc40 	bl	8000a28 <MCAL_GPIO_Init>

	PinCfg.GPIO_PinNumber=R2;
 80001a8:	4b2a      	ldr	r3, [pc, #168]	; (8000254 <KEYBAD_INIT+0xe4>)
 80001aa:	2208      	movs	r2, #8
 80001ac:	801a      	strh	r2, [r3, #0]
	PinCfg.GPIO_Mode = GPIO_mode_OUTPUT_PP;
 80001ae:	4b29      	ldr	r3, [pc, #164]	; (8000254 <KEYBAD_INIT+0xe4>)
 80001b0:	2204      	movs	r2, #4
 80001b2:	709a      	strb	r2, [r3, #2]
	PinCfg.GPIO_Output_Speed = GPIO_speed_OUTPUT_10M;
 80001b4:	4b27      	ldr	r3, [pc, #156]	; (8000254 <KEYBAD_INIT+0xe4>)
 80001b6:	2201      	movs	r2, #1
 80001b8:	70da      	strb	r2, [r3, #3]
	MCAL_GPIO_Init(KEYPAD_PORT,&PinCfg);
 80001ba:	4926      	ldr	r1, [pc, #152]	; (8000254 <KEYBAD_INIT+0xe4>)
 80001bc:	4826      	ldr	r0, [pc, #152]	; (8000258 <KEYBAD_INIT+0xe8>)
 80001be:	f000 fc33 	bl	8000a28 <MCAL_GPIO_Init>

	PinCfg.GPIO_PinNumber=R3;
 80001c2:	4b24      	ldr	r3, [pc, #144]	; (8000254 <KEYBAD_INIT+0xe4>)
 80001c4:	2210      	movs	r2, #16
 80001c6:	801a      	strh	r2, [r3, #0]
	PinCfg.GPIO_Mode = GPIO_mode_OUTPUT_PP;
 80001c8:	4b22      	ldr	r3, [pc, #136]	; (8000254 <KEYBAD_INIT+0xe4>)
 80001ca:	2204      	movs	r2, #4
 80001cc:	709a      	strb	r2, [r3, #2]
	PinCfg.GPIO_Output_Speed = GPIO_speed_OUTPUT_10M;
 80001ce:	4b21      	ldr	r3, [pc, #132]	; (8000254 <KEYBAD_INIT+0xe4>)
 80001d0:	2201      	movs	r2, #1
 80001d2:	70da      	strb	r2, [r3, #3]
	MCAL_GPIO_Init(KEYPAD_PORT,&PinCfg);
 80001d4:	491f      	ldr	r1, [pc, #124]	; (8000254 <KEYBAD_INIT+0xe4>)
 80001d6:	4820      	ldr	r0, [pc, #128]	; (8000258 <KEYBAD_INIT+0xe8>)
 80001d8:	f000 fc26 	bl	8000a28 <MCAL_GPIO_Init>

	PinCfg.GPIO_PinNumber=C0;
 80001dc:	4b1d      	ldr	r3, [pc, #116]	; (8000254 <KEYBAD_INIT+0xe4>)
 80001de:	2220      	movs	r2, #32
 80001e0:	801a      	strh	r2, [r3, #0]
	PinCfg.GPIO_Mode = GPIO_mode_OUTPUT_PP;
 80001e2:	4b1c      	ldr	r3, [pc, #112]	; (8000254 <KEYBAD_INIT+0xe4>)
 80001e4:	2204      	movs	r2, #4
 80001e6:	709a      	strb	r2, [r3, #2]
	PinCfg.GPIO_Output_Speed = GPIO_speed_OUTPUT_10M;
 80001e8:	4b1a      	ldr	r3, [pc, #104]	; (8000254 <KEYBAD_INIT+0xe4>)
 80001ea:	2201      	movs	r2, #1
 80001ec:	70da      	strb	r2, [r3, #3]
	MCAL_GPIO_Init(KEYPAD_PORT,&PinCfg);
 80001ee:	4919      	ldr	r1, [pc, #100]	; (8000254 <KEYBAD_INIT+0xe4>)
 80001f0:	4819      	ldr	r0, [pc, #100]	; (8000258 <KEYBAD_INIT+0xe8>)
 80001f2:	f000 fc19 	bl	8000a28 <MCAL_GPIO_Init>

	PinCfg.GPIO_PinNumber=C1;
 80001f6:	4b17      	ldr	r3, [pc, #92]	; (8000254 <KEYBAD_INIT+0xe4>)
 80001f8:	2240      	movs	r2, #64	; 0x40
 80001fa:	801a      	strh	r2, [r3, #0]
	PinCfg.GPIO_Mode = GPIO_mode_OUTPUT_PP;
 80001fc:	4b15      	ldr	r3, [pc, #84]	; (8000254 <KEYBAD_INIT+0xe4>)
 80001fe:	2204      	movs	r2, #4
 8000200:	709a      	strb	r2, [r3, #2]
	PinCfg.GPIO_Output_Speed = GPIO_speed_OUTPUT_10M;
 8000202:	4b14      	ldr	r3, [pc, #80]	; (8000254 <KEYBAD_INIT+0xe4>)
 8000204:	2201      	movs	r2, #1
 8000206:	70da      	strb	r2, [r3, #3]
	MCAL_GPIO_Init(KEYPAD_PORT,&PinCfg);
 8000208:	4912      	ldr	r1, [pc, #72]	; (8000254 <KEYBAD_INIT+0xe4>)
 800020a:	4813      	ldr	r0, [pc, #76]	; (8000258 <KEYBAD_INIT+0xe8>)
 800020c:	f000 fc0c 	bl	8000a28 <MCAL_GPIO_Init>

	PinCfg.GPIO_PinNumber=C2;
 8000210:	4b10      	ldr	r3, [pc, #64]	; (8000254 <KEYBAD_INIT+0xe4>)
 8000212:	2280      	movs	r2, #128	; 0x80
 8000214:	801a      	strh	r2, [r3, #0]
	PinCfg.GPIO_Mode = GPIO_mode_OUTPUT_PP;
 8000216:	4b0f      	ldr	r3, [pc, #60]	; (8000254 <KEYBAD_INIT+0xe4>)
 8000218:	2204      	movs	r2, #4
 800021a:	709a      	strb	r2, [r3, #2]
	PinCfg.GPIO_Output_Speed = GPIO_speed_OUTPUT_10M;
 800021c:	4b0d      	ldr	r3, [pc, #52]	; (8000254 <KEYBAD_INIT+0xe4>)
 800021e:	2201      	movs	r2, #1
 8000220:	70da      	strb	r2, [r3, #3]
	MCAL_GPIO_Init(KEYPAD_PORT,&PinCfg);
 8000222:	490c      	ldr	r1, [pc, #48]	; (8000254 <KEYBAD_INIT+0xe4>)
 8000224:	480c      	ldr	r0, [pc, #48]	; (8000258 <KEYBAD_INIT+0xe8>)
 8000226:	f000 fbff 	bl	8000a28 <MCAL_GPIO_Init>

	PinCfg.GPIO_PinNumber=C3;
 800022a:	4b0a      	ldr	r3, [pc, #40]	; (8000254 <KEYBAD_INIT+0xe4>)
 800022c:	f44f 7280 	mov.w	r2, #256	; 0x100
 8000230:	801a      	strh	r2, [r3, #0]
	PinCfg.GPIO_Mode = GPIO_mode_OUTPUT_PP;
 8000232:	4b08      	ldr	r3, [pc, #32]	; (8000254 <KEYBAD_INIT+0xe4>)
 8000234:	2204      	movs	r2, #4
 8000236:	709a      	strb	r2, [r3, #2]
	PinCfg.GPIO_Output_Speed = GPIO_speed_OUTPUT_10M;
 8000238:	4b06      	ldr	r3, [pc, #24]	; (8000254 <KEYBAD_INIT+0xe4>)
 800023a:	2201      	movs	r2, #1
 800023c:	70da      	strb	r2, [r3, #3]
	MCAL_GPIO_Init(KEYPAD_PORT,&PinCfg);
 800023e:	4905      	ldr	r1, [pc, #20]	; (8000254 <KEYBAD_INIT+0xe4>)
 8000240:	4805      	ldr	r0, [pc, #20]	; (8000258 <KEYBAD_INIT+0xe8>)
 8000242:	f000 fbf1 	bl	8000a28 <MCAL_GPIO_Init>

	MCAL_GPIO_WritePort(KEYPAD_PORT, 0xFF);
 8000246:	21ff      	movs	r1, #255	; 0xff
 8000248:	4803      	ldr	r0, [pc, #12]	; (8000258 <KEYBAD_INIT+0xe8>)
 800024a:	f000 fc9a 	bl	8000b82 <MCAL_GPIO_WritePort>
}
 800024e:	bf00      	nop
 8000250:	bd80      	pop	{r7, pc}
 8000252:	bf00      	nop
 8000254:	2000003c 	.word	0x2000003c
 8000258:	40010c00 	.word	0x40010c00

0800025c <KEYPAD_GETCHAR>:
char KEYPAD_GETCHAR()
{
 800025c:	b580      	push	{r7, lr}
 800025e:	b082      	sub	sp, #8
 8000260:	af00      	add	r7, sp, #0
	int i,j;
	for(i=0;i<4;i++)
 8000262:	2300      	movs	r3, #0
 8000264:	607b      	str	r3, [r7, #4]
 8000266:	e0b4      	b.n	80003d2 <KEYPAD_GETCHAR+0x176>
	{
		//		KEYPAD_PORT |= ((1<<keypad_C[0]) | (keypad_C[1]) | (keypad_C[2]) | (keypad_C[3]));
		//		KEYPAD_PORT &= ~(1<<keypad_C[i]);

		MCAL_GPIO_WritePin(KEYPAD_PORT, keypad_C[0], GPIO_PIN_SET);
 8000268:	4b5e      	ldr	r3, [pc, #376]	; (80003e4 <KEYPAD_GETCHAR+0x188>)
 800026a:	681b      	ldr	r3, [r3, #0]
 800026c:	b29b      	uxth	r3, r3
 800026e:	2201      	movs	r2, #1
 8000270:	4619      	mov	r1, r3
 8000272:	485d      	ldr	r0, [pc, #372]	; (80003e8 <KEYPAD_GETCHAR+0x18c>)
 8000274:	f000 fc6e 	bl	8000b54 <MCAL_GPIO_WritePin>
		MCAL_GPIO_WritePin(KEYPAD_PORT, keypad_C[1], GPIO_PIN_SET);
 8000278:	4b5a      	ldr	r3, [pc, #360]	; (80003e4 <KEYPAD_GETCHAR+0x188>)
 800027a:	685b      	ldr	r3, [r3, #4]
 800027c:	b29b      	uxth	r3, r3
 800027e:	2201      	movs	r2, #1
 8000280:	4619      	mov	r1, r3
 8000282:	4859      	ldr	r0, [pc, #356]	; (80003e8 <KEYPAD_GETCHAR+0x18c>)
 8000284:	f000 fc66 	bl	8000b54 <MCAL_GPIO_WritePin>
		MCAL_GPIO_WritePin(KEYPAD_PORT, keypad_C[2], GPIO_PIN_SET);
 8000288:	4b56      	ldr	r3, [pc, #344]	; (80003e4 <KEYPAD_GETCHAR+0x188>)
 800028a:	689b      	ldr	r3, [r3, #8]
 800028c:	b29b      	uxth	r3, r3
 800028e:	2201      	movs	r2, #1
 8000290:	4619      	mov	r1, r3
 8000292:	4855      	ldr	r0, [pc, #340]	; (80003e8 <KEYPAD_GETCHAR+0x18c>)
 8000294:	f000 fc5e 	bl	8000b54 <MCAL_GPIO_WritePin>
		MCAL_GPIO_WritePin(KEYPAD_PORT, keypad_C[3], GPIO_PIN_SET);
 8000298:	4b52      	ldr	r3, [pc, #328]	; (80003e4 <KEYPAD_GETCHAR+0x188>)
 800029a:	68db      	ldr	r3, [r3, #12]
 800029c:	b29b      	uxth	r3, r3
 800029e:	2201      	movs	r2, #1
 80002a0:	4619      	mov	r1, r3
 80002a2:	4851      	ldr	r0, [pc, #324]	; (80003e8 <KEYPAD_GETCHAR+0x18c>)
 80002a4:	f000 fc56 	bl	8000b54 <MCAL_GPIO_WritePin>
		MCAL_GPIO_WritePin(KEYPAD_PORT, keypad_C[i], GPIO_PIN_RESET);
 80002a8:	4a4e      	ldr	r2, [pc, #312]	; (80003e4 <KEYPAD_GETCHAR+0x188>)
 80002aa:	687b      	ldr	r3, [r7, #4]
 80002ac:	f852 3023 	ldr.w	r3, [r2, r3, lsl #2]
 80002b0:	b29b      	uxth	r3, r3
 80002b2:	2200      	movs	r2, #0
 80002b4:	4619      	mov	r1, r3
 80002b6:	484c      	ldr	r0, [pc, #304]	; (80003e8 <KEYPAD_GETCHAR+0x18c>)
 80002b8:	f000 fc4c 	bl	8000b54 <MCAL_GPIO_WritePin>
		for(j=0;j<4;j++)
 80002bc:	2300      	movs	r3, #0
 80002be:	603b      	str	r3, [r7, #0]
 80002c0:	e080      	b.n	80003c4 <KEYPAD_GETCHAR+0x168>
		{
			if(MCAL_GPIO_ReadPin(KEYPAD_PORT, keypad_R[j]) == 0)
 80002c2:	4a4a      	ldr	r2, [pc, #296]	; (80003ec <KEYPAD_GETCHAR+0x190>)
 80002c4:	683b      	ldr	r3, [r7, #0]
 80002c6:	f852 3023 	ldr.w	r3, [r2, r3, lsl #2]
 80002ca:	b29b      	uxth	r3, r3
 80002cc:	4619      	mov	r1, r3
 80002ce:	4846      	ldr	r0, [pc, #280]	; (80003e8 <KEYPAD_GETCHAR+0x18c>)
 80002d0:	f000 fc29 	bl	8000b26 <MCAL_GPIO_ReadPin>
 80002d4:	4603      	mov	r3, r0
 80002d6:	2b00      	cmp	r3, #0
 80002d8:	d171      	bne.n	80003be <KEYPAD_GETCHAR+0x162>
			{
				while(MCAL_GPIO_ReadPin(KEYPAD_PORT, keypad_R[j]) == 0);
 80002da:	bf00      	nop
 80002dc:	4a43      	ldr	r2, [pc, #268]	; (80003ec <KEYPAD_GETCHAR+0x190>)
 80002de:	683b      	ldr	r3, [r7, #0]
 80002e0:	f852 3023 	ldr.w	r3, [r2, r3, lsl #2]
 80002e4:	b29b      	uxth	r3, r3
 80002e6:	4619      	mov	r1, r3
 80002e8:	483f      	ldr	r0, [pc, #252]	; (80003e8 <KEYPAD_GETCHAR+0x18c>)
 80002ea:	f000 fc1c 	bl	8000b26 <MCAL_GPIO_ReadPin>
 80002ee:	4603      	mov	r3, r0
 80002f0:	2b00      	cmp	r3, #0
 80002f2:	d0f3      	beq.n	80002dc <KEYPAD_GETCHAR+0x80>
				switch(i)
 80002f4:	687b      	ldr	r3, [r7, #4]
 80002f6:	2b03      	cmp	r3, #3
 80002f8:	d861      	bhi.n	80003be <KEYPAD_GETCHAR+0x162>
 80002fa:	a201      	add	r2, pc, #4	; (adr r2, 8000300 <KEYPAD_GETCHAR+0xa4>)
 80002fc:	f852 f023 	ldr.w	pc, [r2, r3, lsl #2]
 8000300:	08000311 	.word	0x08000311
 8000304:	08000339 	.word	0x08000339
 8000308:	08000361 	.word	0x08000361
 800030c:	08000389 	.word	0x08000389
				{
				case(0):
				  {
					if(j==0)
 8000310:	683b      	ldr	r3, [r7, #0]
 8000312:	2b00      	cmp	r3, #0
 8000314:	d101      	bne.n	800031a <KEYPAD_GETCHAR+0xbe>
						return '7';
 8000316:	2337      	movs	r3, #55	; 0x37
 8000318:	e060      	b.n	80003dc <KEYPAD_GETCHAR+0x180>
					else if (j==1)
 800031a:	683b      	ldr	r3, [r7, #0]
 800031c:	2b01      	cmp	r3, #1
 800031e:	d101      	bne.n	8000324 <KEYPAD_GETCHAR+0xc8>
						return '4';
 8000320:	2334      	movs	r3, #52	; 0x34
 8000322:	e05b      	b.n	80003dc <KEYPAD_GETCHAR+0x180>
					else if (j==2)
 8000324:	683b      	ldr	r3, [r7, #0]
 8000326:	2b02      	cmp	r3, #2
 8000328:	d101      	bne.n	800032e <KEYPAD_GETCHAR+0xd2>
						return '1';
 800032a:	2331      	movs	r3, #49	; 0x31
 800032c:	e056      	b.n	80003dc <KEYPAD_GETCHAR+0x180>
					else if (j==1)
 800032e:	683b      	ldr	r3, [r7, #0]
 8000330:	2b01      	cmp	r3, #1
 8000332:	d13d      	bne.n	80003b0 <KEYPAD_GETCHAR+0x154>
						return '!';
 8000334:	2321      	movs	r3, #33	; 0x21
 8000336:	e051      	b.n	80003dc <KEYPAD_GETCHAR+0x180>
					break;
				   }
				case(1):
				   {
					if(j==0)
 8000338:	683b      	ldr	r3, [r7, #0]
 800033a:	2b00      	cmp	r3, #0
 800033c:	d101      	bne.n	8000342 <KEYPAD_GETCHAR+0xe6>
						return '8';
 800033e:	2338      	movs	r3, #56	; 0x38
 8000340:	e04c      	b.n	80003dc <KEYPAD_GETCHAR+0x180>
					else if (j==1)
 8000342:	683b      	ldr	r3, [r7, #0]
 8000344:	2b01      	cmp	r3, #1
 8000346:	d101      	bne.n	800034c <KEYPAD_GETCHAR+0xf0>
						return '5';
 8000348:	2335      	movs	r3, #53	; 0x35
 800034a:	e047      	b.n	80003dc <KEYPAD_GETCHAR+0x180>
					else if (j==2)
 800034c:	683b      	ldr	r3, [r7, #0]
 800034e:	2b02      	cmp	r3, #2
 8000350:	d101      	bne.n	8000356 <KEYPAD_GETCHAR+0xfa>
						return '2';
 8000352:	2332      	movs	r3, #50	; 0x32
 8000354:	e042      	b.n	80003dc <KEYPAD_GETCHAR+0x180>
					else if (j==1)
 8000356:	683b      	ldr	r3, [r7, #0]
 8000358:	2b01      	cmp	r3, #1
 800035a:	d12b      	bne.n	80003b4 <KEYPAD_GETCHAR+0x158>
						return '0';
 800035c:	2330      	movs	r3, #48	; 0x30
 800035e:	e03d      	b.n	80003dc <KEYPAD_GETCHAR+0x180>
					break;
				   }
				case(2):
				   {
					if(j==0)
 8000360:	683b      	ldr	r3, [r7, #0]
 8000362:	2b00      	cmp	r3, #0
 8000364:	d101      	bne.n	800036a <KEYPAD_GETCHAR+0x10e>
						return '9';
 8000366:	2339      	movs	r3, #57	; 0x39
 8000368:	e038      	b.n	80003dc <KEYPAD_GETCHAR+0x180>
					else if (j==1)
 800036a:	683b      	ldr	r3, [r7, #0]
 800036c:	2b01      	cmp	r3, #1
 800036e:	d101      	bne.n	8000374 <KEYPAD_GETCHAR+0x118>
						return '6';
 8000370:	2336      	movs	r3, #54	; 0x36
 8000372:	e033      	b.n	80003dc <KEYPAD_GETCHAR+0x180>
					else if (j==2)
 8000374:	683b      	ldr	r3, [r7, #0]
 8000376:	2b02      	cmp	r3, #2
 8000378:	d101      	bne.n	800037e <KEYPAD_GETCHAR+0x122>
						return '3';
 800037a:	2333      	movs	r3, #51	; 0x33
 800037c:	e02e      	b.n	80003dc <KEYPAD_GETCHAR+0x180>
					else if (j==1)
 800037e:	683b      	ldr	r3, [r7, #0]
 8000380:	2b01      	cmp	r3, #1
 8000382:	d119      	bne.n	80003b8 <KEYPAD_GETCHAR+0x15c>
						return '=';
 8000384:	233d      	movs	r3, #61	; 0x3d
 8000386:	e029      	b.n	80003dc <KEYPAD_GETCHAR+0x180>
					break;
				   }
				case(3):
				   {
					if(j==0)
 8000388:	683b      	ldr	r3, [r7, #0]
 800038a:	2b00      	cmp	r3, #0
 800038c:	d101      	bne.n	8000392 <KEYPAD_GETCHAR+0x136>
						return '/';
 800038e:	232f      	movs	r3, #47	; 0x2f
 8000390:	e024      	b.n	80003dc <KEYPAD_GETCHAR+0x180>
					else if (j==1)
 8000392:	683b      	ldr	r3, [r7, #0]
 8000394:	2b01      	cmp	r3, #1
 8000396:	d101      	bne.n	800039c <KEYPAD_GETCHAR+0x140>
						return '*';
 8000398:	232a      	movs	r3, #42	; 0x2a
 800039a:	e01f      	b.n	80003dc <KEYPAD_GETCHAR+0x180>
					else if (j==2)
 800039c:	683b      	ldr	r3, [r7, #0]
 800039e:	2b02      	cmp	r3, #2
 80003a0:	d101      	bne.n	80003a6 <KEYPAD_GETCHAR+0x14a>
						return '-';
 80003a2:	232d      	movs	r3, #45	; 0x2d
 80003a4:	e01a      	b.n	80003dc <KEYPAD_GETCHAR+0x180>
					else if (j==1)
 80003a6:	683b      	ldr	r3, [r7, #0]
 80003a8:	2b01      	cmp	r3, #1
 80003aa:	d107      	bne.n	80003bc <KEYPAD_GETCHAR+0x160>
						return '+';
 80003ac:	232b      	movs	r3, #43	; 0x2b
 80003ae:	e015      	b.n	80003dc <KEYPAD_GETCHAR+0x180>
					break;
 80003b0:	bf00      	nop
 80003b2:	e004      	b.n	80003be <KEYPAD_GETCHAR+0x162>
					break;
 80003b4:	bf00      	nop
 80003b6:	e002      	b.n	80003be <KEYPAD_GETCHAR+0x162>
					break;
 80003b8:	bf00      	nop
 80003ba:	e000      	b.n	80003be <KEYPAD_GETCHAR+0x162>
					break;
 80003bc:	bf00      	nop
		for(j=0;j<4;j++)
 80003be:	683b      	ldr	r3, [r7, #0]
 80003c0:	3301      	adds	r3, #1
 80003c2:	603b      	str	r3, [r7, #0]
 80003c4:	683b      	ldr	r3, [r7, #0]
 80003c6:	2b03      	cmp	r3, #3
 80003c8:	f77f af7b 	ble.w	80002c2 <KEYPAD_GETCHAR+0x66>
	for(i=0;i<4;i++)
 80003cc:	687b      	ldr	r3, [r7, #4]
 80003ce:	3301      	adds	r3, #1
 80003d0:	607b      	str	r3, [r7, #4]
 80003d2:	687b      	ldr	r3, [r7, #4]
 80003d4:	2b03      	cmp	r3, #3
 80003d6:	f77f af47 	ble.w	8000268 <KEYPAD_GETCHAR+0xc>
				}
			}

		}
	}
	return 'N';
 80003da:	234e      	movs	r3, #78	; 0x4e
}
 80003dc:	4618      	mov	r0, r3
 80003de:	3708      	adds	r7, #8
 80003e0:	46bd      	mov	sp, r7
 80003e2:	bd80      	pop	{r7, pc}
 80003e4:	20000010 	.word	0x20000010
 80003e8:	40010c00 	.word	0x40010c00
 80003ec:	20000000 	.word	0x20000000

080003f0 <wait>:
 */

#include "../../HAL/LCD_DRIVER/lcd.h"

void wait(int x)
{
 80003f0:	b480      	push	{r7}
 80003f2:	b085      	sub	sp, #20
 80003f4:	af00      	add	r7, sp, #0
 80003f6:	6078      	str	r0, [r7, #4]
	unsigned int i,j;
	for(i=0;i<x;i++)
 80003f8:	2300      	movs	r3, #0
 80003fa:	60fb      	str	r3, [r7, #12]
 80003fc:	e00b      	b.n	8000416 <wait+0x26>
	{
		for(j=0;j<255;j++);
 80003fe:	2300      	movs	r3, #0
 8000400:	60bb      	str	r3, [r7, #8]
 8000402:	e002      	b.n	800040a <wait+0x1a>
 8000404:	68bb      	ldr	r3, [r7, #8]
 8000406:	3301      	adds	r3, #1
 8000408:	60bb      	str	r3, [r7, #8]
 800040a:	68bb      	ldr	r3, [r7, #8]
 800040c:	2bfe      	cmp	r3, #254	; 0xfe
 800040e:	d9f9      	bls.n	8000404 <wait+0x14>
	for(i=0;i<x;i++)
 8000410:	68fb      	ldr	r3, [r7, #12]
 8000412:	3301      	adds	r3, #1
 8000414:	60fb      	str	r3, [r7, #12]
 8000416:	687b      	ldr	r3, [r7, #4]
 8000418:	68fa      	ldr	r2, [r7, #12]
 800041a:	429a      	cmp	r2, r3
 800041c:	d3ef      	bcc.n	80003fe <wait+0xe>
	}
}
 800041e:	bf00      	nop
 8000420:	3714      	adds	r7, #20
 8000422:	46bd      	mov	sp, r7
 8000424:	bc80      	pop	{r7}
 8000426:	4770      	bx	lr

08000428 <LCD_KICK>:
//================================================================
void LCD_KICK(void)
{
 8000428:	b580      	push	{r7, lr}
 800042a:	af00      	add	r7, sp, #0
	MCAL_GPIO_WritePin(LCD_CTRL, ENABLE_SWITCH, GPIO_PIN_SET);
 800042c:	2201      	movs	r2, #1
 800042e:	f44f 6180 	mov.w	r1, #1024	; 0x400
 8000432:	4807      	ldr	r0, [pc, #28]	; (8000450 <LCD_KICK+0x28>)
 8000434:	f000 fb8e 	bl	8000b54 <MCAL_GPIO_WritePin>
	wait(30);
 8000438:	201e      	movs	r0, #30
 800043a:	f7ff ffd9 	bl	80003f0 <wait>
	MCAL_GPIO_WritePin(LCD_CTRL, ENABLE_SWITCH, GPIO_PIN_RESET);
 800043e:	2200      	movs	r2, #0
 8000440:	f44f 6180 	mov.w	r1, #1024	; 0x400
 8000444:	4802      	ldr	r0, [pc, #8]	; (8000450 <LCD_KICK+0x28>)
 8000446:	f000 fb85 	bl	8000b54 <MCAL_GPIO_WritePin>
}
 800044a:	bf00      	nop
 800044c:	bd80      	pop	{r7, pc}
 800044e:	bf00      	nop
 8000450:	40010800 	.word	0x40010800

08000454 <LCD_GOTO_XY>:
//================================================================
void LCD_GOTO_XY(int line,int position)
{
 8000454:	b580      	push	{r7, lr}
 8000456:	b082      	sub	sp, #8
 8000458:	af00      	add	r7, sp, #0
 800045a:	6078      	str	r0, [r7, #4]
 800045c:	6039      	str	r1, [r7, #0]
	if(line ==1)
 800045e:	687b      	ldr	r3, [r7, #4]
 8000460:	2b01      	cmp	r3, #1
 8000462:	d10d      	bne.n	8000480 <LCD_GOTO_XY+0x2c>
	{
		if(position >=0 && position <16)
 8000464:	683b      	ldr	r3, [r7, #0]
 8000466:	2b00      	cmp	r3, #0
 8000468:	db1a      	blt.n	80004a0 <LCD_GOTO_XY+0x4c>
 800046a:	683b      	ldr	r3, [r7, #0]
 800046c:	2b0f      	cmp	r3, #15
 800046e:	dc17      	bgt.n	80004a0 <LCD_GOTO_XY+0x4c>
		{
			LCD_WRITE_COMMAND(LCD_BEGIN_AT_FIRST_ROW+position);
 8000470:	683b      	ldr	r3, [r7, #0]
 8000472:	b2db      	uxtb	r3, r3
 8000474:	3b80      	subs	r3, #128	; 0x80
 8000476:	b2db      	uxtb	r3, r3
 8000478:	4618      	mov	r0, r3
 800047a:	f000 f8dd 	bl	8000638 <LCD_WRITE_COMMAND>
		if(position >=0 && position <16)
		{
			LCD_WRITE_COMMAND(LCD_BEGIN_AT_SECOND_ROW+position);
		}
	}
}
 800047e:	e00f      	b.n	80004a0 <LCD_GOTO_XY+0x4c>
	else if(line==2)
 8000480:	687b      	ldr	r3, [r7, #4]
 8000482:	2b02      	cmp	r3, #2
 8000484:	d10c      	bne.n	80004a0 <LCD_GOTO_XY+0x4c>
		if(position >=0 && position <16)
 8000486:	683b      	ldr	r3, [r7, #0]
 8000488:	2b00      	cmp	r3, #0
 800048a:	db09      	blt.n	80004a0 <LCD_GOTO_XY+0x4c>
 800048c:	683b      	ldr	r3, [r7, #0]
 800048e:	2b0f      	cmp	r3, #15
 8000490:	dc06      	bgt.n	80004a0 <LCD_GOTO_XY+0x4c>
			LCD_WRITE_COMMAND(LCD_BEGIN_AT_SECOND_ROW+position);
 8000492:	683b      	ldr	r3, [r7, #0]
 8000494:	b2db      	uxtb	r3, r3
 8000496:	3b40      	subs	r3, #64	; 0x40
 8000498:	b2db      	uxtb	r3, r3
 800049a:	4618      	mov	r0, r3
 800049c:	f000 f8cc 	bl	8000638 <LCD_WRITE_COMMAND>
}
 80004a0:	bf00      	nop
 80004a2:	3708      	adds	r7, #8
 80004a4:	46bd      	mov	sp, r7
 80004a6:	bd80      	pop	{r7, pc}

080004a8 <LCD_clear_screen>:
	LCD_KICK();
	MCAL_GPIO_WritePin(LCD_CTRL, RW_SWITCH, GPIO_PIN_RESET);
}
//================================================================
void LCD_clear_screen()
{
 80004a8:	b580      	push	{r7, lr}
 80004aa:	af00      	add	r7, sp, #0
	LCD_WRITE_COMMAND(LCD_CLEAR_SCREEN);
 80004ac:	2001      	movs	r0, #1
 80004ae:	f000 f8c3 	bl	8000638 <LCD_WRITE_COMMAND>
}
 80004b2:	bf00      	nop
 80004b4:	bd80      	pop	{r7, pc}
	...

080004b8 <LCD_INIT>:
//================================================================
void LCD_INIT(void)
{
 80004b8:	b580      	push	{r7, lr}
 80004ba:	af00      	add	r7, sp, #0
	wait(25);
 80004bc:	2019      	movs	r0, #25
 80004be:	f7ff ff97 	bl	80003f0 <wait>
//	LCD_isbusy();

	//ENABLE_SWITCH,RS_SWITCH,RW_SWITCH PUSHBUTTON output:

	PinCfg.GPIO_PinNumber = RS_SWITCH;
 80004c2:	4b5b      	ldr	r3, [pc, #364]	; (8000630 <LCD_INIT+0x178>)
 80004c4:	f44f 7280 	mov.w	r2, #256	; 0x100
 80004c8:	801a      	strh	r2, [r3, #0]
	PinCfg.GPIO_Mode = GPIO_mode_OUTPUT_PP;
 80004ca:	4b59      	ldr	r3, [pc, #356]	; (8000630 <LCD_INIT+0x178>)
 80004cc:	2204      	movs	r2, #4
 80004ce:	709a      	strb	r2, [r3, #2]
	PinCfg.GPIO_Output_Speed = GPIO_speed_OUTPUT_10M;
 80004d0:	4b57      	ldr	r3, [pc, #348]	; (8000630 <LCD_INIT+0x178>)
 80004d2:	2201      	movs	r2, #1
 80004d4:	70da      	strb	r2, [r3, #3]
	MCAL_GPIO_Init(LCD_CTRL, &PinCfg);
 80004d6:	4956      	ldr	r1, [pc, #344]	; (8000630 <LCD_INIT+0x178>)
 80004d8:	4856      	ldr	r0, [pc, #344]	; (8000634 <LCD_INIT+0x17c>)
 80004da:	f000 faa5 	bl	8000a28 <MCAL_GPIO_Init>

	PinCfg.GPIO_PinNumber = RW_SWITCH;
 80004de:	4b54      	ldr	r3, [pc, #336]	; (8000630 <LCD_INIT+0x178>)
 80004e0:	f44f 7200 	mov.w	r2, #512	; 0x200
 80004e4:	801a      	strh	r2, [r3, #0]
	PinCfg.GPIO_Mode = GPIO_mode_OUTPUT_PP;
 80004e6:	4b52      	ldr	r3, [pc, #328]	; (8000630 <LCD_INIT+0x178>)
 80004e8:	2204      	movs	r2, #4
 80004ea:	709a      	strb	r2, [r3, #2]
	PinCfg.GPIO_Output_Speed = GPIO_speed_OUTPUT_10M;
 80004ec:	4b50      	ldr	r3, [pc, #320]	; (8000630 <LCD_INIT+0x178>)
 80004ee:	2201      	movs	r2, #1
 80004f0:	70da      	strb	r2, [r3, #3]
	MCAL_GPIO_Init(LCD_CTRL, &PinCfg);
 80004f2:	494f      	ldr	r1, [pc, #316]	; (8000630 <LCD_INIT+0x178>)
 80004f4:	484f      	ldr	r0, [pc, #316]	; (8000634 <LCD_INIT+0x17c>)
 80004f6:	f000 fa97 	bl	8000a28 <MCAL_GPIO_Init>

	PinCfg.GPIO_PinNumber = ENABLE_SWITCH;
 80004fa:	4b4d      	ldr	r3, [pc, #308]	; (8000630 <LCD_INIT+0x178>)
 80004fc:	f44f 6280 	mov.w	r2, #1024	; 0x400
 8000500:	801a      	strh	r2, [r3, #0]
	PinCfg.GPIO_Mode = GPIO_mode_OUTPUT_PP;
 8000502:	4b4b      	ldr	r3, [pc, #300]	; (8000630 <LCD_INIT+0x178>)
 8000504:	2204      	movs	r2, #4
 8000506:	709a      	strb	r2, [r3, #2]
	PinCfg.GPIO_Output_Speed = GPIO_speed_OUTPUT_10M;
 8000508:	4b49      	ldr	r3, [pc, #292]	; (8000630 <LCD_INIT+0x178>)
 800050a:	2201      	movs	r2, #1
 800050c:	70da      	strb	r2, [r3, #3]
	MCAL_GPIO_Init(LCD_CTRL, &PinCfg);
 800050e:	4948      	ldr	r1, [pc, #288]	; (8000630 <LCD_INIT+0x178>)
 8000510:	4848      	ldr	r0, [pc, #288]	; (8000634 <LCD_INIT+0x17c>)
 8000512:	f000 fa89 	bl	8000a28 <MCAL_GPIO_Init>


	//  DATA PINS OUTPUT with speed 10MHZ
	PinCfg.GPIO_PinNumber = GPIO_PIN_0;
 8000516:	4b46      	ldr	r3, [pc, #280]	; (8000630 <LCD_INIT+0x178>)
 8000518:	2201      	movs	r2, #1
 800051a:	801a      	strh	r2, [r3, #0]
	PinCfg.GPIO_Mode = GPIO_mode_OUTPUT_PP;
 800051c:	4b44      	ldr	r3, [pc, #272]	; (8000630 <LCD_INIT+0x178>)
 800051e:	2204      	movs	r2, #4
 8000520:	709a      	strb	r2, [r3, #2]
	PinCfg.GPIO_Output_Speed = GPIO_speed_OUTPUT_10M;
 8000522:	4b43      	ldr	r3, [pc, #268]	; (8000630 <LCD_INIT+0x178>)
 8000524:	2201      	movs	r2, #1
 8000526:	70da      	strb	r2, [r3, #3]
	MCAL_GPIO_Init(LCD_PORT,&PinCfg);
 8000528:	4941      	ldr	r1, [pc, #260]	; (8000630 <LCD_INIT+0x178>)
 800052a:	4842      	ldr	r0, [pc, #264]	; (8000634 <LCD_INIT+0x17c>)
 800052c:	f000 fa7c 	bl	8000a28 <MCAL_GPIO_Init>

	PinCfg.GPIO_PinNumber = GPIO_PIN_1;
 8000530:	4b3f      	ldr	r3, [pc, #252]	; (8000630 <LCD_INIT+0x178>)
 8000532:	2202      	movs	r2, #2
 8000534:	801a      	strh	r2, [r3, #0]
	PinCfg.GPIO_Mode = GPIO_mode_OUTPUT_PP;
 8000536:	4b3e      	ldr	r3, [pc, #248]	; (8000630 <LCD_INIT+0x178>)
 8000538:	2204      	movs	r2, #4
 800053a:	709a      	strb	r2, [r3, #2]
	PinCfg.GPIO_Output_Speed = GPIO_speed_OUTPUT_10M;
 800053c:	4b3c      	ldr	r3, [pc, #240]	; (8000630 <LCD_INIT+0x178>)
 800053e:	2201      	movs	r2, #1
 8000540:	70da      	strb	r2, [r3, #3]
	MCAL_GPIO_Init(LCD_PORT,&PinCfg);
 8000542:	493b      	ldr	r1, [pc, #236]	; (8000630 <LCD_INIT+0x178>)
 8000544:	483b      	ldr	r0, [pc, #236]	; (8000634 <LCD_INIT+0x17c>)
 8000546:	f000 fa6f 	bl	8000a28 <MCAL_GPIO_Init>

	PinCfg.GPIO_PinNumber = GPIO_PIN_2;
 800054a:	4b39      	ldr	r3, [pc, #228]	; (8000630 <LCD_INIT+0x178>)
 800054c:	2204      	movs	r2, #4
 800054e:	801a      	strh	r2, [r3, #0]
	PinCfg.GPIO_Mode = GPIO_mode_OUTPUT_PP;
 8000550:	4b37      	ldr	r3, [pc, #220]	; (8000630 <LCD_INIT+0x178>)
 8000552:	2204      	movs	r2, #4
 8000554:	709a      	strb	r2, [r3, #2]
	PinCfg.GPIO_Output_Speed = GPIO_speed_OUTPUT_10M;
 8000556:	4b36      	ldr	r3, [pc, #216]	; (8000630 <LCD_INIT+0x178>)
 8000558:	2201      	movs	r2, #1
 800055a:	70da      	strb	r2, [r3, #3]
	MCAL_GPIO_Init(LCD_PORT,&PinCfg);
 800055c:	4934      	ldr	r1, [pc, #208]	; (8000630 <LCD_INIT+0x178>)
 800055e:	4835      	ldr	r0, [pc, #212]	; (8000634 <LCD_INIT+0x17c>)
 8000560:	f000 fa62 	bl	8000a28 <MCAL_GPIO_Init>

	PinCfg.GPIO_PinNumber = GPIO_PIN_3;
 8000564:	4b32      	ldr	r3, [pc, #200]	; (8000630 <LCD_INIT+0x178>)
 8000566:	2208      	movs	r2, #8
 8000568:	801a      	strh	r2, [r3, #0]
	PinCfg.GPIO_Mode = GPIO_mode_OUTPUT_PP;
 800056a:	4b31      	ldr	r3, [pc, #196]	; (8000630 <LCD_INIT+0x178>)
 800056c:	2204      	movs	r2, #4
 800056e:	709a      	strb	r2, [r3, #2]
	PinCfg.GPIO_Output_Speed = GPIO_speed_OUTPUT_10M;
 8000570:	4b2f      	ldr	r3, [pc, #188]	; (8000630 <LCD_INIT+0x178>)
 8000572:	2201      	movs	r2, #1
 8000574:	70da      	strb	r2, [r3, #3]
	MCAL_GPIO_Init(LCD_PORT,&PinCfg);
 8000576:	492e      	ldr	r1, [pc, #184]	; (8000630 <LCD_INIT+0x178>)
 8000578:	482e      	ldr	r0, [pc, #184]	; (8000634 <LCD_INIT+0x17c>)
 800057a:	f000 fa55 	bl	8000a28 <MCAL_GPIO_Init>

	PinCfg.GPIO_PinNumber = GPIO_PIN_4;
 800057e:	4b2c      	ldr	r3, [pc, #176]	; (8000630 <LCD_INIT+0x178>)
 8000580:	2210      	movs	r2, #16
 8000582:	801a      	strh	r2, [r3, #0]
	PinCfg.GPIO_Mode = GPIO_mode_OUTPUT_PP;
 8000584:	4b2a      	ldr	r3, [pc, #168]	; (8000630 <LCD_INIT+0x178>)
 8000586:	2204      	movs	r2, #4
 8000588:	709a      	strb	r2, [r3, #2]
	PinCfg.GPIO_Output_Speed = GPIO_speed_OUTPUT_10M;
 800058a:	4b29      	ldr	r3, [pc, #164]	; (8000630 <LCD_INIT+0x178>)
 800058c:	2201      	movs	r2, #1
 800058e:	70da      	strb	r2, [r3, #3]
	MCAL_GPIO_Init(LCD_PORT,&PinCfg);
 8000590:	4927      	ldr	r1, [pc, #156]	; (8000630 <LCD_INIT+0x178>)
 8000592:	4828      	ldr	r0, [pc, #160]	; (8000634 <LCD_INIT+0x17c>)
 8000594:	f000 fa48 	bl	8000a28 <MCAL_GPIO_Init>

	PinCfg.GPIO_PinNumber = GPIO_PIN_5;
 8000598:	4b25      	ldr	r3, [pc, #148]	; (8000630 <LCD_INIT+0x178>)
 800059a:	2220      	movs	r2, #32
 800059c:	801a      	strh	r2, [r3, #0]
	PinCfg.GPIO_Mode = GPIO_mode_OUTPUT_PP;
 800059e:	4b24      	ldr	r3, [pc, #144]	; (8000630 <LCD_INIT+0x178>)
 80005a0:	2204      	movs	r2, #4
 80005a2:	709a      	strb	r2, [r3, #2]
	PinCfg.GPIO_Output_Speed = GPIO_speed_OUTPUT_10M;
 80005a4:	4b22      	ldr	r3, [pc, #136]	; (8000630 <LCD_INIT+0x178>)
 80005a6:	2201      	movs	r2, #1
 80005a8:	70da      	strb	r2, [r3, #3]
	MCAL_GPIO_Init(LCD_PORT,&PinCfg);
 80005aa:	4921      	ldr	r1, [pc, #132]	; (8000630 <LCD_INIT+0x178>)
 80005ac:	4821      	ldr	r0, [pc, #132]	; (8000634 <LCD_INIT+0x17c>)
 80005ae:	f000 fa3b 	bl	8000a28 <MCAL_GPIO_Init>

	PinCfg.GPIO_PinNumber = GPIO_PIN_6;
 80005b2:	4b1f      	ldr	r3, [pc, #124]	; (8000630 <LCD_INIT+0x178>)
 80005b4:	2240      	movs	r2, #64	; 0x40
 80005b6:	801a      	strh	r2, [r3, #0]
	PinCfg.GPIO_Mode = GPIO_mode_OUTPUT_PP;
 80005b8:	4b1d      	ldr	r3, [pc, #116]	; (8000630 <LCD_INIT+0x178>)
 80005ba:	2204      	movs	r2, #4
 80005bc:	709a      	strb	r2, [r3, #2]
	PinCfg.GPIO_Output_Speed = GPIO_speed_OUTPUT_10M;
 80005be:	4b1c      	ldr	r3, [pc, #112]	; (8000630 <LCD_INIT+0x178>)
 80005c0:	2201      	movs	r2, #1
 80005c2:	70da      	strb	r2, [r3, #3]
	MCAL_GPIO_Init(LCD_PORT,&PinCfg);
 80005c4:	491a      	ldr	r1, [pc, #104]	; (8000630 <LCD_INIT+0x178>)
 80005c6:	481b      	ldr	r0, [pc, #108]	; (8000634 <LCD_INIT+0x17c>)
 80005c8:	f000 fa2e 	bl	8000a28 <MCAL_GPIO_Init>

	PinCfg.GPIO_PinNumber = GPIO_PIN_7;
 80005cc:	4b18      	ldr	r3, [pc, #96]	; (8000630 <LCD_INIT+0x178>)
 80005ce:	2280      	movs	r2, #128	; 0x80
 80005d0:	801a      	strh	r2, [r3, #0]
	PinCfg.GPIO_Mode = GPIO_mode_OUTPUT_PP;
 80005d2:	4b17      	ldr	r3, [pc, #92]	; (8000630 <LCD_INIT+0x178>)
 80005d4:	2204      	movs	r2, #4
 80005d6:	709a      	strb	r2, [r3, #2]
	PinCfg.GPIO_Output_Speed = GPIO_speed_OUTPUT_10M;
 80005d8:	4b15      	ldr	r3, [pc, #84]	; (8000630 <LCD_INIT+0x178>)
 80005da:	2201      	movs	r2, #1
 80005dc:	70da      	strb	r2, [r3, #3]
	MCAL_GPIO_Init(LCD_PORT,&PinCfg);
 80005de:	4914      	ldr	r1, [pc, #80]	; (8000630 <LCD_INIT+0x178>)
 80005e0:	4814      	ldr	r0, [pc, #80]	; (8000634 <LCD_INIT+0x17c>)
 80005e2:	f000 fa21 	bl	8000a28 <MCAL_GPIO_Init>


	MCAL_GPIO_WritePin(LCD_CTRL, ENABLE_SWITCH, GPIO_PIN_RESET);
 80005e6:	2200      	movs	r2, #0
 80005e8:	f44f 6180 	mov.w	r1, #1024	; 0x400
 80005ec:	4811      	ldr	r0, [pc, #68]	; (8000634 <LCD_INIT+0x17c>)
 80005ee:	f000 fab1 	bl	8000b54 <MCAL_GPIO_WritePin>
	MCAL_GPIO_WritePin(LCD_CTRL, RS_SWITCH, GPIO_PIN_RESET);
 80005f2:	2200      	movs	r2, #0
 80005f4:	f44f 7180 	mov.w	r1, #256	; 0x100
 80005f8:	480e      	ldr	r0, [pc, #56]	; (8000634 <LCD_INIT+0x17c>)
 80005fa:	f000 faab 	bl	8000b54 <MCAL_GPIO_WritePin>
	MCAL_GPIO_WritePin(LCD_CTRL, RW_SWITCH, GPIO_PIN_RESET);
 80005fe:	2200      	movs	r2, #0
 8000600:	f44f 7100 	mov.w	r1, #512	; 0x200
 8000604:	480b      	ldr	r0, [pc, #44]	; (8000634 <LCD_INIT+0x17c>)
 8000606:	f000 faa5 	bl	8000b54 <MCAL_GPIO_WritePin>

	wait(20);
 800060a:	2014      	movs	r0, #20
 800060c:	f7ff fef0 	bl	80003f0 <wait>

	LCD_clear_screen();
 8000610:	f7ff ff4a 	bl	80004a8 <LCD_clear_screen>
	LCD_WRITE_COMMAND(LCD_FUNCTION_8BIT_2LINES);
 8000614:	2038      	movs	r0, #56	; 0x38
 8000616:	f000 f80f 	bl	8000638 <LCD_WRITE_COMMAND>
	LCD_WRITE_COMMAND(LCD_ENTRY_MODE);
 800061a:	2006      	movs	r0, #6
 800061c:	f000 f80c 	bl	8000638 <LCD_WRITE_COMMAND>
	LCD_WRITE_COMMAND(LCD_BEGIN_AT_FIRST_ROW);
 8000620:	2080      	movs	r0, #128	; 0x80
 8000622:	f000 f809 	bl	8000638 <LCD_WRITE_COMMAND>
	LCD_WRITE_COMMAND(LCD_DISP_ON_CURSOR_BLINK);
 8000626:	200f      	movs	r0, #15
 8000628:	f000 f806 	bl	8000638 <LCD_WRITE_COMMAND>
}
 800062c:	bf00      	nop
 800062e:	bd80      	pop	{r7, pc}
 8000630:	2000003c 	.word	0x2000003c
 8000634:	40010800 	.word	0x40010800

08000638 <LCD_WRITE_COMMAND>:
//================================================================
void LCD_WRITE_COMMAND(unsigned char command)
{
 8000638:	b580      	push	{r7, lr}
 800063a:	b082      	sub	sp, #8
 800063c:	af00      	add	r7, sp, #0
 800063e:	4603      	mov	r3, r0
 8000640:	71fb      	strb	r3, [r7, #7]
//	LCD_isbusy();
	MCAL_GPIO_WritePort(LCD_PORT, command);
 8000642:	79fb      	ldrb	r3, [r7, #7]
 8000644:	b29b      	uxth	r3, r3
 8000646:	4619      	mov	r1, r3
 8000648:	480b      	ldr	r0, [pc, #44]	; (8000678 <LCD_WRITE_COMMAND+0x40>)
 800064a:	f000 fa9a 	bl	8000b82 <MCAL_GPIO_WritePort>
	MCAL_GPIO_WritePin(LCD_CTRL, RW_SWITCH, GPIO_PIN_RESET);
 800064e:	2200      	movs	r2, #0
 8000650:	f44f 7100 	mov.w	r1, #512	; 0x200
 8000654:	4808      	ldr	r0, [pc, #32]	; (8000678 <LCD_WRITE_COMMAND+0x40>)
 8000656:	f000 fa7d 	bl	8000b54 <MCAL_GPIO_WritePin>
	MCAL_GPIO_WritePin(LCD_CTRL, RS_SWITCH, GPIO_PIN_RESET);
 800065a:	2200      	movs	r2, #0
 800065c:	f44f 7180 	mov.w	r1, #256	; 0x100
 8000660:	4805      	ldr	r0, [pc, #20]	; (8000678 <LCD_WRITE_COMMAND+0x40>)
 8000662:	f000 fa77 	bl	8000b54 <MCAL_GPIO_WritePin>
	wait(1);
 8000666:	2001      	movs	r0, #1
 8000668:	f7ff fec2 	bl	80003f0 <wait>
	LCD_KICK();
 800066c:	f7ff fedc 	bl	8000428 <LCD_KICK>
}
 8000670:	bf00      	nop
 8000672:	3708      	adds	r7, #8
 8000674:	46bd      	mov	sp, r7
 8000676:	bd80      	pop	{r7, pc}
 8000678:	40010800 	.word	0x40010800

0800067c <LCD_WRITE_CHAR>:
//================================================================
void LCD_WRITE_CHAR(unsigned char data)
{
 800067c:	b580      	push	{r7, lr}
 800067e:	b082      	sub	sp, #8
 8000680:	af00      	add	r7, sp, #0
 8000682:	4603      	mov	r3, r0
 8000684:	71fb      	strb	r3, [r7, #7]
//	LCD_isbusy();
	MCAL_GPIO_WritePort(LCD_PORT, data);
 8000686:	79fb      	ldrb	r3, [r7, #7]
 8000688:	b29b      	uxth	r3, r3
 800068a:	4619      	mov	r1, r3
 800068c:	480b      	ldr	r0, [pc, #44]	; (80006bc <LCD_WRITE_CHAR+0x40>)
 800068e:	f000 fa78 	bl	8000b82 <MCAL_GPIO_WritePort>
	MCAL_GPIO_WritePin(LCD_CTRL, RW_SWITCH, GPIO_PIN_RESET);
 8000692:	2200      	movs	r2, #0
 8000694:	f44f 7100 	mov.w	r1, #512	; 0x200
 8000698:	4808      	ldr	r0, [pc, #32]	; (80006bc <LCD_WRITE_CHAR+0x40>)
 800069a:	f000 fa5b 	bl	8000b54 <MCAL_GPIO_WritePin>
	MCAL_GPIO_WritePin(LCD_CTRL, RS_SWITCH, GPIO_PIN_SET);
 800069e:	2201      	movs	r2, #1
 80006a0:	f44f 7180 	mov.w	r1, #256	; 0x100
 80006a4:	4805      	ldr	r0, [pc, #20]	; (80006bc <LCD_WRITE_CHAR+0x40>)
 80006a6:	f000 fa55 	bl	8000b54 <MCAL_GPIO_WritePin>
	wait(1);
 80006aa:	2001      	movs	r0, #1
 80006ac:	f7ff fea0 	bl	80003f0 <wait>
	LCD_KICK();
 80006b0:	f7ff feba 	bl	8000428 <LCD_KICK>

}
 80006b4:	bf00      	nop
 80006b6:	3708      	adds	r7, #8
 80006b8:	46bd      	mov	sp, r7
 80006ba:	bd80      	pop	{r7, pc}
 80006bc:	40010800 	.word	0x40010800

080006c0 <LCD_WRITE_string>:
//================================================================
void LCD_WRITE_string( char* data)
{
 80006c0:	b580      	push	{r7, lr}
 80006c2:	b084      	sub	sp, #16
 80006c4:	af00      	add	r7, sp, #0
 80006c6:	6078      	str	r0, [r7, #4]
	int count = 0;
 80006c8:	2300      	movs	r3, #0
 80006ca:	60fb      	str	r3, [r7, #12]
	while(*data >0)
 80006cc:	e01c      	b.n	8000708 <LCD_WRITE_string+0x48>
	{
		LCD_WRITE_CHAR(*data++);
 80006ce:	687b      	ldr	r3, [r7, #4]
 80006d0:	1c5a      	adds	r2, r3, #1
 80006d2:	607a      	str	r2, [r7, #4]
 80006d4:	781b      	ldrb	r3, [r3, #0]
 80006d6:	4618      	mov	r0, r3
 80006d8:	f7ff ffd0 	bl	800067c <LCD_WRITE_CHAR>
		count++;
 80006dc:	68fb      	ldr	r3, [r7, #12]
 80006de:	3301      	adds	r3, #1
 80006e0:	60fb      	str	r3, [r7, #12]
		if(count==16)
 80006e2:	68fb      	ldr	r3, [r7, #12]
 80006e4:	2b10      	cmp	r3, #16
 80006e6:	d104      	bne.n	80006f2 <LCD_WRITE_string+0x32>
		{
			LCD_GOTO_XY(2,0);
 80006e8:	2100      	movs	r1, #0
 80006ea:	2002      	movs	r0, #2
 80006ec:	f7ff feb2 	bl	8000454 <LCD_GOTO_XY>
 80006f0:	e00a      	b.n	8000708 <LCD_WRITE_string+0x48>
		}
		else if (count==32)
 80006f2:	68fb      	ldr	r3, [r7, #12]
 80006f4:	2b20      	cmp	r3, #32
 80006f6:	d107      	bne.n	8000708 <LCD_WRITE_string+0x48>
		{
			LCD_clear_screen();
 80006f8:	f7ff fed6 	bl	80004a8 <LCD_clear_screen>
			LCD_GOTO_XY(1,0);
 80006fc:	2100      	movs	r1, #0
 80006fe:	2001      	movs	r0, #1
 8000700:	f7ff fea8 	bl	8000454 <LCD_GOTO_XY>
			count=0;
 8000704:	2300      	movs	r3, #0
 8000706:	60fb      	str	r3, [r7, #12]
	while(*data >0)
 8000708:	687b      	ldr	r3, [r7, #4]
 800070a:	781b      	ldrb	r3, [r3, #0]
 800070c:	2b00      	cmp	r3, #0
 800070e:	d1de      	bne.n	80006ce <LCD_WRITE_string+0xe>
		}

	}
}
 8000710:	bf00      	nop
 8000712:	3710      	adds	r7, #16
 8000714:	46bd      	mov	sp, r7
 8000716:	bd80      	pop	{r7, pc}

08000718 <clock_init>:
#define SEVEN 0x19
#define EIGHT 0x00
#define NINE 0x10

void clock_init(void)
{
 8000718:	b480      	push	{r7}
 800071a:	af00      	add	r7, sp, #0
	//enable clock GPOIA
	RCC_GPIOA_CLK_EN();
 800071c:	4b07      	ldr	r3, [pc, #28]	; (800073c <clock_init+0x24>)
 800071e:	699b      	ldr	r3, [r3, #24]
 8000720:	4a06      	ldr	r2, [pc, #24]	; (800073c <clock_init+0x24>)
 8000722:	f043 0304 	orr.w	r3, r3, #4
 8000726:	6193      	str	r3, [r2, #24]
	//enable clock GPOIB
	RCC_GPIOB_CLK_EN();
 8000728:	4b04      	ldr	r3, [pc, #16]	; (800073c <clock_init+0x24>)
 800072a:	699b      	ldr	r3, [r3, #24]
 800072c:	4a03      	ldr	r2, [pc, #12]	; (800073c <clock_init+0x24>)
 800072e:	f043 0308 	orr.w	r3, r3, #8
 8000732:	6193      	str	r3, [r2, #24]
}
 8000734:	bf00      	nop
 8000736:	46bd      	mov	sp, r7
 8000738:	bc80      	pop	{r7}
 800073a:	4770      	bx	lr
 800073c:	40021000 	.word	0x40021000

08000740 <GPIO_init>:

void GPIO_init()
{
 8000740:	b580      	push	{r7, lr}
 8000742:	b082      	sub	sp, #8
 8000744:	af00      	add	r7, sp, #0
	//	PinCfg.GPIO_PinNumber = GPIO_PIN_1;
	//	PinCfg.GPIO_Mode = GPIO_mode_INPUT_FLO;
	//	MCAL_GPIO_Init(GPIOA,&PinCfg);

	//PB1 output push-pull mode:
	PinCfg.GPIO_PinNumber = GPIO_PIN_9;
 8000746:	f44f 7300 	mov.w	r3, #512	; 0x200
 800074a:	80bb      	strh	r3, [r7, #4]
	PinCfg.GPIO_Mode = GPIO_mode_OUTPUT_PP;
 800074c:	2304      	movs	r3, #4
 800074e:	71bb      	strb	r3, [r7, #6]
	PinCfg.GPIO_Output_Speed = GPIO_speed_OUTPUT_10M;
 8000750:	2301      	movs	r3, #1
 8000752:	71fb      	strb	r3, [r7, #7]
	MCAL_GPIO_Init(GPIOB, &PinCfg);
 8000754:	1d3b      	adds	r3, r7, #4
 8000756:	4619      	mov	r1, r3
 8000758:	4827      	ldr	r0, [pc, #156]	; (80007f8 <GPIO_init+0xb8>)
 800075a:	f000 f965 	bl	8000a28 <MCAL_GPIO_Init>

	PinCfg.GPIO_PinNumber = GPIO_PIN_10;
 800075e:	f44f 6380 	mov.w	r3, #1024	; 0x400
 8000762:	80bb      	strh	r3, [r7, #4]
	PinCfg.GPIO_Mode = GPIO_mode_OUTPUT_PP;
 8000764:	2304      	movs	r3, #4
 8000766:	71bb      	strb	r3, [r7, #6]
	PinCfg.GPIO_Output_Speed = GPIO_speed_OUTPUT_10M;
 8000768:	2301      	movs	r3, #1
 800076a:	71fb      	strb	r3, [r7, #7]
	MCAL_GPIO_Init(GPIOB, &PinCfg);
 800076c:	1d3b      	adds	r3, r7, #4
 800076e:	4619      	mov	r1, r3
 8000770:	4821      	ldr	r0, [pc, #132]	; (80007f8 <GPIO_init+0xb8>)
 8000772:	f000 f959 	bl	8000a28 <MCAL_GPIO_Init>

	PinCfg.GPIO_PinNumber = GPIO_PIN_11;
 8000776:	f44f 6300 	mov.w	r3, #2048	; 0x800
 800077a:	80bb      	strh	r3, [r7, #4]
	PinCfg.GPIO_Mode = GPIO_mode_OUTPUT_PP;
 800077c:	2304      	movs	r3, #4
 800077e:	71bb      	strb	r3, [r7, #6]
	PinCfg.GPIO_Output_Speed = GPIO_speed_OUTPUT_10M;
 8000780:	2301      	movs	r3, #1
 8000782:	71fb      	strb	r3, [r7, #7]
	MCAL_GPIO_Init(GPIOB, &PinCfg);
 8000784:	1d3b      	adds	r3, r7, #4
 8000786:	4619      	mov	r1, r3
 8000788:	481b      	ldr	r0, [pc, #108]	; (80007f8 <GPIO_init+0xb8>)
 800078a:	f000 f94d 	bl	8000a28 <MCAL_GPIO_Init>

	PinCfg.GPIO_PinNumber = GPIO_PIN_12;
 800078e:	f44f 5380 	mov.w	r3, #4096	; 0x1000
 8000792:	80bb      	strh	r3, [r7, #4]
	PinCfg.GPIO_Mode = GPIO_mode_OUTPUT_PP;
 8000794:	2304      	movs	r3, #4
 8000796:	71bb      	strb	r3, [r7, #6]
	PinCfg.GPIO_Output_Speed = GPIO_speed_OUTPUT_10M;
 8000798:	2301      	movs	r3, #1
 800079a:	71fb      	strb	r3, [r7, #7]
	MCAL_GPIO_Init(GPIOB, &PinCfg);
 800079c:	1d3b      	adds	r3, r7, #4
 800079e:	4619      	mov	r1, r3
 80007a0:	4815      	ldr	r0, [pc, #84]	; (80007f8 <GPIO_init+0xb8>)
 80007a2:	f000 f941 	bl	8000a28 <MCAL_GPIO_Init>


	PinCfg.GPIO_PinNumber = GPIO_PIN_13;
 80007a6:	f44f 5300 	mov.w	r3, #8192	; 0x2000
 80007aa:	80bb      	strh	r3, [r7, #4]
	PinCfg.GPIO_Mode = GPIO_mode_OUTPUT_PP;
 80007ac:	2304      	movs	r3, #4
 80007ae:	71bb      	strb	r3, [r7, #6]
	PinCfg.GPIO_Output_Speed = GPIO_speed_OUTPUT_10M;
 80007b0:	2301      	movs	r3, #1
 80007b2:	71fb      	strb	r3, [r7, #7]
	MCAL_GPIO_Init(GPIOB,&PinCfg);
 80007b4:	1d3b      	adds	r3, r7, #4
 80007b6:	4619      	mov	r1, r3
 80007b8:	480f      	ldr	r0, [pc, #60]	; (80007f8 <GPIO_init+0xb8>)
 80007ba:	f000 f935 	bl	8000a28 <MCAL_GPIO_Init>


	PinCfg.GPIO_PinNumber = GPIO_PIN_14;
 80007be:	f44f 4380 	mov.w	r3, #16384	; 0x4000
 80007c2:	80bb      	strh	r3, [r7, #4]
	PinCfg.GPIO_Mode = GPIO_mode_OUTPUT_PP;
 80007c4:	2304      	movs	r3, #4
 80007c6:	71bb      	strb	r3, [r7, #6]
	PinCfg.GPIO_Output_Speed = GPIO_speed_OUTPUT_10M;
 80007c8:	2301      	movs	r3, #1
 80007ca:	71fb      	strb	r3, [r7, #7]
	MCAL_GPIO_Init(GPIOB,&PinCfg);
 80007cc:	1d3b      	adds	r3, r7, #4
 80007ce:	4619      	mov	r1, r3
 80007d0:	4809      	ldr	r0, [pc, #36]	; (80007f8 <GPIO_init+0xb8>)
 80007d2:	f000 f929 	bl	8000a28 <MCAL_GPIO_Init>


	PinCfg.GPIO_PinNumber = GPIO_PIN_15;
 80007d6:	f44f 4300 	mov.w	r3, #32768	; 0x8000
 80007da:	80bb      	strh	r3, [r7, #4]
	PinCfg.GPIO_Mode = GPIO_mode_OUTPUT_PP;
 80007dc:	2304      	movs	r3, #4
 80007de:	71bb      	strb	r3, [r7, #6]
	PinCfg.GPIO_Output_Speed = GPIO_speed_OUTPUT_10M;
 80007e0:	2301      	movs	r3, #1
 80007e2:	71fb      	strb	r3, [r7, #7]
	MCAL_GPIO_Init(GPIOB,&PinCfg);
 80007e4:	1d3b      	adds	r3, r7, #4
 80007e6:	4619      	mov	r1, r3
 80007e8:	4803      	ldr	r0, [pc, #12]	; (80007f8 <GPIO_init+0xb8>)
 80007ea:	f000 f91d 	bl	8000a28 <MCAL_GPIO_Init>



}
 80007ee:	bf00      	nop
 80007f0:	3708      	adds	r7, #8
 80007f2:	46bd      	mov	sp, r7
 80007f4:	bd80      	pop	{r7, pc}
 80007f6:	bf00      	nop
 80007f8:	40010c00 	.word	0x40010c00

080007fc <wait_ms>:
void wait_ms(int x)
{
 80007fc:	b480      	push	{r7}
 80007fe:	b085      	sub	sp, #20
 8000800:	af00      	add	r7, sp, #0
 8000802:	6078      	str	r0, [r7, #4]
	unsigned int i,j;
	for(i=0;i<x;i++)
 8000804:	2300      	movs	r3, #0
 8000806:	60fb      	str	r3, [r7, #12]
 8000808:	e00b      	b.n	8000822 <wait_ms+0x26>
	{
		for(j=0;j<255;j++);
 800080a:	2300      	movs	r3, #0
 800080c:	60bb      	str	r3, [r7, #8]
 800080e:	e002      	b.n	8000816 <wait_ms+0x1a>
 8000810:	68bb      	ldr	r3, [r7, #8]
 8000812:	3301      	adds	r3, #1
 8000814:	60bb      	str	r3, [r7, #8]
 8000816:	68bb      	ldr	r3, [r7, #8]
 8000818:	2bfe      	cmp	r3, #254	; 0xfe
 800081a:	d9f9      	bls.n	8000810 <wait_ms+0x14>
	for(i=0;i<x;i++)
 800081c:	68fb      	ldr	r3, [r7, #12]
 800081e:	3301      	adds	r3, #1
 8000820:	60fb      	str	r3, [r7, #12]
 8000822:	687b      	ldr	r3, [r7, #4]
 8000824:	68fa      	ldr	r2, [r7, #12]
 8000826:	429a      	cmp	r2, r3
 8000828:	d3ef      	bcc.n	800080a <wait_ms+0xe>
	}
}
 800082a:	bf00      	nop
 800082c:	3714      	adds	r7, #20
 800082e:	46bd      	mov	sp, r7
 8000830:	bc80      	pop	{r7}
 8000832:	4770      	bx	lr

08000834 <main>:
int main(void)
{
 8000834:	b580      	push	{r7, lr}
 8000836:	b088      	sub	sp, #32
 8000838:	af00      	add	r7, sp, #0
	clock_init();
 800083a:	f7ff ff6d 	bl	8000718 <clock_init>
	LCD_INIT();
 800083e:	f7ff fe3b 	bl	80004b8 <LCD_INIT>
	LCD_WRITE_string("Hi");
 8000842:	482e      	ldr	r0, [pc, #184]	; (80008fc <main+0xc8>)
 8000844:	f7ff ff3c 	bl	80006c0 <LCD_WRITE_string>
	wait_ms(30);
 8000848:	201e      	movs	r0, #30
 800084a:	f7ff ffd7 	bl	80007fc <wait_ms>
	LCD_clear_screen();
 800084e:	f7ff fe2b 	bl	80004a8 <LCD_clear_screen>
	GPIO_init();
 8000852:	f7ff ff75 	bl	8000740 <GPIO_init>
	unsigned char LCD_DISPLAY [11] = {'0', '1', '2', '3', '4', '5', '6', '7', '8', '9', '0'};
 8000856:	4a2a      	ldr	r2, [pc, #168]	; (8000900 <main+0xcc>)
 8000858:	f107 0310 	add.w	r3, r7, #16
 800085c:	ca07      	ldmia	r2, {r0, r1, r2}
 800085e:	c303      	stmia	r3!, {r0, r1}
 8000860:	801a      	strh	r2, [r3, #0]
 8000862:	3302      	adds	r3, #2
 8000864:	0c12      	lsrs	r2, r2, #16
 8000866:	701a      	strb	r2, [r3, #0]
	unsigned char Seg_DISPLAY [11] = {ZERO, ONE, TWO, THREE, FOUR, FIVE, SIX, SEVEN, EIGHT, NINE, ZERO};
 8000868:	4a26      	ldr	r2, [pc, #152]	; (8000904 <main+0xd0>)
 800086a:	1d3b      	adds	r3, r7, #4
 800086c:	ca07      	ldmia	r2, {r0, r1, r2}
 800086e:	c303      	stmia	r3!, {r0, r1}
 8000870:	801a      	strh	r2, [r3, #0]
 8000872:	3302      	adds	r3, #2
 8000874:	0c12      	lsrs	r2, r2, #16
 8000876:	701a      	strb	r2, [r3, #0]
	for (unsigned char i = 0; i < 11; i++)
 8000878:	2300      	movs	r3, #0
 800087a:	77fb      	strb	r3, [r7, #31]
 800087c:	e01b      	b.n	80008b6 <main+0x82>
	{
		LCD_WRITE_CHAR(LCD_DISPLAY[i]);
 800087e:	7ffb      	ldrb	r3, [r7, #31]
 8000880:	f107 0220 	add.w	r2, r7, #32
 8000884:	4413      	add	r3, r2
 8000886:	f813 3c10 	ldrb.w	r3, [r3, #-16]
 800088a:	4618      	mov	r0, r3
 800088c:	f7ff fef6 	bl	800067c <LCD_WRITE_CHAR>
		MCAL_GPIO_WritePort(GPIOB, Seg_DISPLAY[i] << 9); /* write data on to the LED port */
 8000890:	7ffb      	ldrb	r3, [r7, #31]
 8000892:	f107 0220 	add.w	r2, r7, #32
 8000896:	4413      	add	r3, r2
 8000898:	f813 3c1c 	ldrb.w	r3, [r3, #-28]
 800089c:	b29b      	uxth	r3, r3
 800089e:	025b      	lsls	r3, r3, #9
 80008a0:	b29b      	uxth	r3, r3
 80008a2:	4619      	mov	r1, r3
 80008a4:	4818      	ldr	r0, [pc, #96]	; (8000908 <main+0xd4>)
 80008a6:	f000 f96c 	bl	8000b82 <MCAL_GPIO_WritePort>
		wait_ms(100);
 80008aa:	2064      	movs	r0, #100	; 0x64
 80008ac:	f7ff ffa6 	bl	80007fc <wait_ms>
	for (unsigned char i = 0; i < 11; i++)
 80008b0:	7ffb      	ldrb	r3, [r7, #31]
 80008b2:	3301      	adds	r3, #1
 80008b4:	77fb      	strb	r3, [r7, #31]
 80008b6:	7ffb      	ldrb	r3, [r7, #31]
 80008b8:	2b0a      	cmp	r3, #10
 80008ba:	d9e0      	bls.n	800087e <main+0x4a>
		/* wait for 1 second */
	}
	LCD_clear_screen();
 80008bc:	f7ff fdf4 	bl	80004a8 <LCD_clear_screen>
	unsigned char key_pressed;
	KEYBAD_INIT();
 80008c0:	f7ff fc56 	bl	8000170 <KEYBAD_INIT>
	LCD_WRITE_string("Keypad is ready");
 80008c4:	4811      	ldr	r0, [pc, #68]	; (800090c <main+0xd8>)
 80008c6:	f7ff fefb 	bl	80006c0 <LCD_WRITE_string>
	wait_ms(30);
 80008ca:	201e      	movs	r0, #30
 80008cc:	f7ff ff96 	bl	80007fc <wait_ms>
	LCD_clear_screen();
 80008d0:	f7ff fdea 	bl	80004a8 <LCD_clear_screen>
	while(1)
	{
		key_pressed = KEYPAD_GETCHAR();
 80008d4:	f7ff fcc2 	bl	800025c <KEYPAD_GETCHAR>
 80008d8:	4603      	mov	r3, r0
 80008da:	77bb      	strb	r3, [r7, #30]
		switch (key_pressed)
 80008dc:	7fbb      	ldrb	r3, [r7, #30]
 80008de:	2b3f      	cmp	r3, #63	; 0x3f
 80008e0:	d002      	beq.n	80008e8 <main+0xb4>
 80008e2:	2b41      	cmp	r3, #65	; 0x41
 80008e4:	d008      	beq.n	80008f8 <main+0xc4>
 80008e6:	e002      	b.n	80008ee <main+0xba>
		{
		case 'A':
			break;
		case '?':
			LCD_clear_screen();
 80008e8:	f7ff fdde 	bl	80004a8 <LCD_clear_screen>
			break;
 80008ec:	e005      	b.n	80008fa <main+0xc6>
		default:
			LCD_WRITE_CHAR(key_pressed);
 80008ee:	7fbb      	ldrb	r3, [r7, #30]
 80008f0:	4618      	mov	r0, r3
 80008f2:	f7ff fec3 	bl	800067c <LCD_WRITE_CHAR>
			break;
 80008f6:	e000      	b.n	80008fa <main+0xc6>
			break;
 80008f8:	bf00      	nop
		key_pressed = KEYPAD_GETCHAR();
 80008fa:	e7eb      	b.n	80008d4 <main+0xa0>
 80008fc:	08000c00 	.word	0x08000c00
 8000900:	08000c14 	.word	0x08000c14
 8000904:	08000c20 	.word	0x08000c20
 8000908:	40010c00 	.word	0x40010c00
 800090c:	08000c04 	.word	0x08000c04

08000910 <Reset_Handler>:

  .section .text.Reset_Handler
  .weak Reset_Handler
  .type Reset_Handler, %function
Reset_Handler:
  ldr   r0, =_estack
 8000910:	480d      	ldr	r0, [pc, #52]	; (8000948 <LoopForever+0x2>)
  mov   sp, r0          /* set stack pointer */
 8000912:	4685      	mov	sp, r0
/* Call the clock system intitialization function.*/
  bl  SystemInit
 8000914:	f3af 8000 	nop.w

/* Copy the data segment initializers from flash to SRAM */
  ldr r0, =_sdata
 8000918:	480c      	ldr	r0, [pc, #48]	; (800094c <LoopForever+0x6>)
  ldr r1, =_edata
 800091a:	490d      	ldr	r1, [pc, #52]	; (8000950 <LoopForever+0xa>)
  ldr r2, =_sidata
 800091c:	4a0d      	ldr	r2, [pc, #52]	; (8000954 <LoopForever+0xe>)
  movs r3, #0
 800091e:	2300      	movs	r3, #0
  b LoopCopyDataInit
 8000920:	e002      	b.n	8000928 <LoopCopyDataInit>

08000922 <CopyDataInit>:

CopyDataInit:
  ldr r4, [r2, r3]
 8000922:	58d4      	ldr	r4, [r2, r3]
  str r4, [r0, r3]
 8000924:	50c4      	str	r4, [r0, r3]
  adds r3, r3, #4
 8000926:	3304      	adds	r3, #4

08000928 <LoopCopyDataInit>:

LoopCopyDataInit:
  adds r4, r0, r3
 8000928:	18c4      	adds	r4, r0, r3
  cmp r4, r1
 800092a:	428c      	cmp	r4, r1
  bcc CopyDataInit
 800092c:	d3f9      	bcc.n	8000922 <CopyDataInit>

/* Zero fill the bss segment. */
  ldr r2, =_sbss
 800092e:	4a0a      	ldr	r2, [pc, #40]	; (8000958 <LoopForever+0x12>)
  ldr r4, =_ebss
 8000930:	4c0a      	ldr	r4, [pc, #40]	; (800095c <LoopForever+0x16>)
  movs r3, #0
 8000932:	2300      	movs	r3, #0
  b LoopFillZerobss
 8000934:	e001      	b.n	800093a <LoopFillZerobss>

08000936 <FillZerobss>:

FillZerobss:
  str  r3, [r2]
 8000936:	6013      	str	r3, [r2, #0]
  adds r2, r2, #4
 8000938:	3204      	adds	r2, #4

0800093a <LoopFillZerobss>:

LoopFillZerobss:
  cmp r2, r4
 800093a:	42a2      	cmp	r2, r4
  bcc FillZerobss
 800093c:	d3fb      	bcc.n	8000936 <FillZerobss>

/* Call static constructors */
  bl __libc_init_array
 800093e:	f000 f92f 	bl	8000ba0 <__libc_init_array>
/* Call the application's entry point.*/
  bl main
 8000942:	f7ff ff77 	bl	8000834 <main>

08000946 <LoopForever>:

LoopForever:
    b LoopForever
 8000946:	e7fe      	b.n	8000946 <LoopForever>
  ldr   r0, =_estack
 8000948:	20002800 	.word	0x20002800
  ldr r0, =_sdata
 800094c:	20000000 	.word	0x20000000
  ldr r1, =_edata
 8000950:	20000020 	.word	0x20000020
  ldr r2, =_sidata
 8000954:	08000c34 	.word	0x08000c34
  ldr r2, =_sbss
 8000958:	20000020 	.word	0x20000020
  ldr r4, =_ebss
 800095c:	20000040 	.word	0x20000040

08000960 <ADC1_2_IRQHandler>:
 * @retval : None
*/
  .section .text.Default_Handler,"ax",%progbits
Default_Handler:
Infinite_Loop:
  b Infinite_Loop
 8000960:	e7fe      	b.n	8000960 <ADC1_2_IRQHandler>

08000962 <GetPosition_CRLH>:


#include "stm32_f103c6_GPIO_driver.h"

uint8_t GetPosition_CRLH(uint16_t PinNumber)
{
 8000962:	b480      	push	{r7}
 8000964:	b083      	sub	sp, #12
 8000966:	af00      	add	r7, sp, #0
 8000968:	4603      	mov	r3, r0
 800096a:	80fb      	strh	r3, [r7, #6]
	switch (PinNumber)
 800096c:	88fb      	ldrh	r3, [r7, #6]
 800096e:	2b80      	cmp	r3, #128	; 0x80
 8000970:	d042      	beq.n	80009f8 <GetPosition_CRLH+0x96>
 8000972:	2b80      	cmp	r3, #128	; 0x80
 8000974:	dc11      	bgt.n	800099a <GetPosition_CRLH+0x38>
 8000976:	2b08      	cmp	r3, #8
 8000978:	d036      	beq.n	80009e8 <GetPosition_CRLH+0x86>
 800097a:	2b08      	cmp	r3, #8
 800097c:	dc06      	bgt.n	800098c <GetPosition_CRLH+0x2a>
 800097e:	2b02      	cmp	r3, #2
 8000980:	d02e      	beq.n	80009e0 <GetPosition_CRLH+0x7e>
 8000982:	2b04      	cmp	r3, #4
 8000984:	d02e      	beq.n	80009e4 <GetPosition_CRLH+0x82>
 8000986:	2b01      	cmp	r3, #1
 8000988:	d028      	beq.n	80009dc <GetPosition_CRLH+0x7a>
 800098a:	e047      	b.n	8000a1c <GetPosition_CRLH+0xba>
 800098c:	2b20      	cmp	r3, #32
 800098e:	d02f      	beq.n	80009f0 <GetPosition_CRLH+0x8e>
 8000990:	2b40      	cmp	r3, #64	; 0x40
 8000992:	d02f      	beq.n	80009f4 <GetPosition_CRLH+0x92>
 8000994:	2b10      	cmp	r3, #16
 8000996:	d029      	beq.n	80009ec <GetPosition_CRLH+0x8a>
 8000998:	e040      	b.n	8000a1c <GetPosition_CRLH+0xba>
 800099a:	f5b3 6f00 	cmp.w	r3, #2048	; 0x800
 800099e:	d033      	beq.n	8000a08 <GetPosition_CRLH+0xa6>
 80009a0:	f5b3 6f00 	cmp.w	r3, #2048	; 0x800
 80009a4:	dc09      	bgt.n	80009ba <GetPosition_CRLH+0x58>
 80009a6:	f5b3 7f00 	cmp.w	r3, #512	; 0x200
 80009aa:	d029      	beq.n	8000a00 <GetPosition_CRLH+0x9e>
 80009ac:	f5b3 6f80 	cmp.w	r3, #1024	; 0x400
 80009b0:	d028      	beq.n	8000a04 <GetPosition_CRLH+0xa2>
 80009b2:	f5b3 7f80 	cmp.w	r3, #256	; 0x100
 80009b6:	d021      	beq.n	80009fc <GetPosition_CRLH+0x9a>
 80009b8:	e030      	b.n	8000a1c <GetPosition_CRLH+0xba>
 80009ba:	f5b3 5f00 	cmp.w	r3, #8192	; 0x2000
 80009be:	d027      	beq.n	8000a10 <GetPosition_CRLH+0xae>
 80009c0:	f5b3 5f00 	cmp.w	r3, #8192	; 0x2000
 80009c4:	dc03      	bgt.n	80009ce <GetPosition_CRLH+0x6c>
 80009c6:	f5b3 5f80 	cmp.w	r3, #4096	; 0x1000
 80009ca:	d01f      	beq.n	8000a0c <GetPosition_CRLH+0xaa>
 80009cc:	e026      	b.n	8000a1c <GetPosition_CRLH+0xba>
 80009ce:	f5b3 4f80 	cmp.w	r3, #16384	; 0x4000
 80009d2:	d01f      	beq.n	8000a14 <GetPosition_CRLH+0xb2>
 80009d4:	f5b3 4f00 	cmp.w	r3, #32768	; 0x8000
 80009d8:	d01e      	beq.n	8000a18 <GetPosition_CRLH+0xb6>
 80009da:	e01f      	b.n	8000a1c <GetPosition_CRLH+0xba>
	{
	case GPIO_PIN_0  :
		return 0;
 80009dc:	2300      	movs	r3, #0
 80009de:	e01e      	b.n	8000a1e <GetPosition_CRLH+0xbc>
		break;
	case GPIO_PIN_1  :
		return 4;
 80009e0:	2304      	movs	r3, #4
 80009e2:	e01c      	b.n	8000a1e <GetPosition_CRLH+0xbc>
		break;
	case GPIO_PIN_2  :
		return 8;
 80009e4:	2308      	movs	r3, #8
 80009e6:	e01a      	b.n	8000a1e <GetPosition_CRLH+0xbc>
		break;
	case GPIO_PIN_3  :
		return 12;
 80009e8:	230c      	movs	r3, #12
 80009ea:	e018      	b.n	8000a1e <GetPosition_CRLH+0xbc>
		break;
	case GPIO_PIN_4  :
		return 16;
 80009ec:	2310      	movs	r3, #16
 80009ee:	e016      	b.n	8000a1e <GetPosition_CRLH+0xbc>
		break;
	case GPIO_PIN_5  :
		return 20;
 80009f0:	2314      	movs	r3, #20
 80009f2:	e014      	b.n	8000a1e <GetPosition_CRLH+0xbc>
		break;
	case GPIO_PIN_6  :
		return 24;
 80009f4:	2318      	movs	r3, #24
 80009f6:	e012      	b.n	8000a1e <GetPosition_CRLH+0xbc>
		break;
	case GPIO_PIN_7  :
		return 28;
 80009f8:	231c      	movs	r3, #28
 80009fa:	e010      	b.n	8000a1e <GetPosition_CRLH+0xbc>
		break;

	case GPIO_PIN_8  :
		return 0;
 80009fc:	2300      	movs	r3, #0
 80009fe:	e00e      	b.n	8000a1e <GetPosition_CRLH+0xbc>
		break;
	case GPIO_PIN_9  :
		return 4;
 8000a00:	2304      	movs	r3, #4
 8000a02:	e00c      	b.n	8000a1e <GetPosition_CRLH+0xbc>
		break;
	case GPIO_PIN_10 :
		return 8;
 8000a04:	2308      	movs	r3, #8
 8000a06:	e00a      	b.n	8000a1e <GetPosition_CRLH+0xbc>
		break;
	case GPIO_PIN_11 :
		return 12;
 8000a08:	230c      	movs	r3, #12
 8000a0a:	e008      	b.n	8000a1e <GetPosition_CRLH+0xbc>
		break;
	case GPIO_PIN_12 :
		return 16;
 8000a0c:	2310      	movs	r3, #16
 8000a0e:	e006      	b.n	8000a1e <GetPosition_CRLH+0xbc>
		break;
	case GPIO_PIN_13 :
		return 20;
 8000a10:	2314      	movs	r3, #20
 8000a12:	e004      	b.n	8000a1e <GetPosition_CRLH+0xbc>
		break;
	case GPIO_PIN_14 :
		return 24;
 8000a14:	2318      	movs	r3, #24
 8000a16:	e002      	b.n	8000a1e <GetPosition_CRLH+0xbc>
		break;
	case GPIO_PIN_15 :
		return 28;
 8000a18:	231c      	movs	r3, #28
 8000a1a:	e000      	b.n	8000a1e <GetPosition_CRLH+0xbc>
		break;
	}
	return 0;
 8000a1c:	2300      	movs	r3, #0
}
 8000a1e:	4618      	mov	r0, r3
 8000a20:	370c      	adds	r7, #12
 8000a22:	46bd      	mov	sp, r7
 8000a24:	bc80      	pop	{r7}
 8000a26:	4770      	bx	lr

08000a28 <MCAL_GPIO_Init>:
 * @retval        -none
 * Note           -stm32F103c6 MCU has GPIO A,B,C,D,E Modules
                  But LQFP48 Package has only GPIO A,B,PART of C,D exported as external PINS from MCu.
 */
void MCAL_GPIO_Init(GPIO_Typedef *GPIOx,GPIO_PinConfig_t *PinConfig)
{
 8000a28:	b590      	push	{r4, r7, lr}
 8000a2a:	b085      	sub	sp, #20
 8000a2c:	af00      	add	r7, sp, #0
 8000a2e:	6078      	str	r0, [r7, #4]
 8000a30:	6039      	str	r1, [r7, #0]
	//Port configuration register low (GPIOx_CRL) configures pins(0:7)
	//Port configuration register high (GPIOx_CRH) configures pins(0:15)
	volatile uint32_t* configRegister = NULL;
 8000a32:	2300      	movs	r3, #0
 8000a34:	60bb      	str	r3, [r7, #8]
	uint8_t PIN_Config =0;
 8000a36:	2300      	movs	r3, #0
 8000a38:	73fb      	strb	r3, [r7, #15]

	configRegister = (PinConfig ->GPIO_PinNumber < GPIO_PIN_8)? &GPIOx->CRL : &GPIOx->CRH;
 8000a3a:	683b      	ldr	r3, [r7, #0]
 8000a3c:	881b      	ldrh	r3, [r3, #0]
 8000a3e:	2bff      	cmp	r3, #255	; 0xff
 8000a40:	d801      	bhi.n	8000a46 <MCAL_GPIO_Init+0x1e>
 8000a42:	687b      	ldr	r3, [r7, #4]
 8000a44:	e001      	b.n	8000a4a <MCAL_GPIO_Init+0x22>
 8000a46:	687b      	ldr	r3, [r7, #4]
 8000a48:	3304      	adds	r3, #4
 8000a4a:	60bb      	str	r3, [r7, #8]

	//clear CNF0[1:0] MODE0[1:0]
	(*configRegister) &= ~(0xf << GetPosition_CRLH(PinConfig->GPIO_PinNumber));
 8000a4c:	683b      	ldr	r3, [r7, #0]
 8000a4e:	881b      	ldrh	r3, [r3, #0]
 8000a50:	4618      	mov	r0, r3
 8000a52:	f7ff ff86 	bl	8000962 <GetPosition_CRLH>
 8000a56:	4603      	mov	r3, r0
 8000a58:	461a      	mov	r2, r3
 8000a5a:	230f      	movs	r3, #15
 8000a5c:	4093      	lsls	r3, r2
 8000a5e:	43da      	mvns	r2, r3
 8000a60:	68bb      	ldr	r3, [r7, #8]
 8000a62:	681b      	ldr	r3, [r3, #0]
 8000a64:	401a      	ands	r2, r3
 8000a66:	68bb      	ldr	r3, [r7, #8]
 8000a68:	601a      	str	r2, [r3, #0]

	//if pin is output
	if((PinConfig->GPIO_Mode == GPIO_mode_OUTPUT_AF_OD) || (PinConfig->GPIO_Mode == GPIO_mode_OUTPUT_AF_PP) || (PinConfig->GPIO_Mode == GPIO_mode_OUTPUT_OD) || (PinConfig->GPIO_Mode == GPIO_mode_OUTPUT_PP))
 8000a6a:	683b      	ldr	r3, [r7, #0]
 8000a6c:	789b      	ldrb	r3, [r3, #2]
 8000a6e:	2b07      	cmp	r3, #7
 8000a70:	d00b      	beq.n	8000a8a <MCAL_GPIO_Init+0x62>
 8000a72:	683b      	ldr	r3, [r7, #0]
 8000a74:	789b      	ldrb	r3, [r3, #2]
 8000a76:	2b06      	cmp	r3, #6
 8000a78:	d007      	beq.n	8000a8a <MCAL_GPIO_Init+0x62>
 8000a7a:	683b      	ldr	r3, [r7, #0]
 8000a7c:	789b      	ldrb	r3, [r3, #2]
 8000a7e:	2b05      	cmp	r3, #5
 8000a80:	d003      	beq.n	8000a8a <MCAL_GPIO_Init+0x62>
 8000a82:	683b      	ldr	r3, [r7, #0]
 8000a84:	789b      	ldrb	r3, [r3, #2]
 8000a86:	2b04      	cmp	r3, #4
 8000a88:	d10e      	bne.n	8000aa8 <MCAL_GPIO_Init+0x80>
	{
		//set CNF8[1:0] MODE8[1:0]
		PIN_Config = ( ( ( (PinConfig->GPIO_Mode -4) <<2) | (PinConfig->GPIO_Output_Speed) ) & 0x0f);
 8000a8a:	683b      	ldr	r3, [r7, #0]
 8000a8c:	789b      	ldrb	r3, [r3, #2]
 8000a8e:	3b04      	subs	r3, #4
 8000a90:	009b      	lsls	r3, r3, #2
 8000a92:	b25a      	sxtb	r2, r3
 8000a94:	683b      	ldr	r3, [r7, #0]
 8000a96:	78db      	ldrb	r3, [r3, #3]
 8000a98:	b25b      	sxtb	r3, r3
 8000a9a:	4313      	orrs	r3, r2
 8000a9c:	b25b      	sxtb	r3, r3
 8000a9e:	b2db      	uxtb	r3, r3
 8000aa0:	f003 030f 	and.w	r3, r3, #15
 8000aa4:	73fb      	strb	r3, [r7, #15]
 8000aa6:	e02c      	b.n	8000b02 <MCAL_GPIO_Init+0xda>

	}
	//if pin is input
	else //Mode = 00: Input mode (reset state)
	{
		if((PinConfig->GPIO_Mode == GPIO_mode_INPUT_FLO) || (PinConfig->GPIO_Mode == GPIO_mode_Analog) )
 8000aa8:	683b      	ldr	r3, [r7, #0]
 8000aaa:	789b      	ldrb	r3, [r3, #2]
 8000aac:	2b01      	cmp	r3, #1
 8000aae:	d003      	beq.n	8000ab8 <MCAL_GPIO_Init+0x90>
 8000ab0:	683b      	ldr	r3, [r7, #0]
 8000ab2:	789b      	ldrb	r3, [r3, #2]
 8000ab4:	2b00      	cmp	r3, #0
 8000ab6:	d107      	bne.n	8000ac8 <MCAL_GPIO_Init+0xa0>
		{
			//set CNF8[1:0] MODE8[1:0]
			PIN_Config =  ( ( ( (PinConfig->GPIO_Mode) <<2) | 0x0 ) & 0x0f);
 8000ab8:	683b      	ldr	r3, [r7, #0]
 8000aba:	789b      	ldrb	r3, [r3, #2]
 8000abc:	009b      	lsls	r3, r3, #2
 8000abe:	b2db      	uxtb	r3, r3
 8000ac0:	f003 030f 	and.w	r3, r3, #15
 8000ac4:	73fb      	strb	r3, [r7, #15]
 8000ac6:	e01c      	b.n	8000b02 <MCAL_GPIO_Init+0xda>

		}
		else if(PinConfig->GPIO_Mode == GPIO_mode_INPUT_AF)
 8000ac8:	683b      	ldr	r3, [r7, #0]
 8000aca:	789b      	ldrb	r3, [r3, #2]
 8000acc:	2b08      	cmp	r3, #8
 8000ace:	d102      	bne.n	8000ad6 <MCAL_GPIO_Init+0xae>
		{
			//set CNF8[1:0] MODE8[1:0]
			PIN_Config =  ( ( ( (GPIO_mode_INPUT_FLO) <<2) | 0x0 ) & 0x0f); //consider it as input floating
 8000ad0:	2304      	movs	r3, #4
 8000ad2:	73fb      	strb	r3, [r7, #15]
 8000ad4:	e015      	b.n	8000b02 <MCAL_GPIO_Init+0xda>
		}
		else //PU PD input
		{
			//set CNF8[1:0] MODE8[1:0]
			PIN_Config =  ( ( ( (GPIO_mode_INPUT_PU) <<2) | 0x0 ) & 0x0f);
 8000ad6:	2308      	movs	r3, #8
 8000ad8:	73fb      	strb	r3, [r7, #15]
			if ( PinConfig->GPIO_Mode == GPIO_mode_INPUT_PU)
 8000ada:	683b      	ldr	r3, [r7, #0]
 8000adc:	789b      	ldrb	r3, [r3, #2]
 8000ade:	2b02      	cmp	r3, #2
 8000ae0:	d107      	bne.n	8000af2 <MCAL_GPIO_Init+0xca>
			{
				//Table 20. Port bit configuration table ( PxODR register = 1)
				GPIOx->ODR |= PinConfig->GPIO_PinNumber;
 8000ae2:	687b      	ldr	r3, [r7, #4]
 8000ae4:	68db      	ldr	r3, [r3, #12]
 8000ae6:	683a      	ldr	r2, [r7, #0]
 8000ae8:	8812      	ldrh	r2, [r2, #0]
 8000aea:	431a      	orrs	r2, r3
 8000aec:	687b      	ldr	r3, [r7, #4]
 8000aee:	60da      	str	r2, [r3, #12]
 8000af0:	e007      	b.n	8000b02 <MCAL_GPIO_Init+0xda>
			}
			else
			{
				//Table 20. Port bit configuration table ( PxODR register = 0)
				GPIOx->ODR &= ~(PinConfig->GPIO_PinNumber);
 8000af2:	687b      	ldr	r3, [r7, #4]
 8000af4:	68db      	ldr	r3, [r3, #12]
 8000af6:	683a      	ldr	r2, [r7, #0]
 8000af8:	8812      	ldrh	r2, [r2, #0]
 8000afa:	43d2      	mvns	r2, r2
 8000afc:	401a      	ands	r2, r3
 8000afe:	687b      	ldr	r3, [r7, #4]
 8000b00:	60da      	str	r2, [r3, #12]
		}


	}
	//write on CRL OR CRH
	(*configRegister) |= ( (PIN_Config) << GetPosition_CRLH(PinConfig->GPIO_PinNumber) );
 8000b02:	7bfc      	ldrb	r4, [r7, #15]
 8000b04:	683b      	ldr	r3, [r7, #0]
 8000b06:	881b      	ldrh	r3, [r3, #0]
 8000b08:	4618      	mov	r0, r3
 8000b0a:	f7ff ff2a 	bl	8000962 <GetPosition_CRLH>
 8000b0e:	4603      	mov	r3, r0
 8000b10:	fa04 f203 	lsl.w	r2, r4, r3
 8000b14:	68bb      	ldr	r3, [r7, #8]
 8000b16:	681b      	ldr	r3, [r3, #0]
 8000b18:	431a      	orrs	r2, r3
 8000b1a:	68bb      	ldr	r3, [r7, #8]
 8000b1c:	601a      	str	r2, [r3, #0]
}
 8000b1e:	bf00      	nop
 8000b20:	3714      	adds	r7, #20
 8000b22:	46bd      	mov	sp, r7
 8000b24:	bd90      	pop	{r4, r7, pc}

08000b26 <MCAL_GPIO_ReadPin>:
 * @param [in]    -PinNumber: set pin Number according @ref GPIO_PINS_define
 * @retval        -the input pin value (two values based on @ref GPIO_PIN_state)
 * Note           -none
 */
uint8_t MCAL_GPIO_ReadPin(GPIO_Typedef *GPIOx,uint16_t PinNumber)
{
 8000b26:	b480      	push	{r7}
 8000b28:	b085      	sub	sp, #20
 8000b2a:	af00      	add	r7, sp, #0
 8000b2c:	6078      	str	r0, [r7, #4]
 8000b2e:	460b      	mov	r3, r1
 8000b30:	807b      	strh	r3, [r7, #2]
	uint8_t bitStatus;
	if(((GPIOx->IDR) & PinNumber) != (uint32_t) GPIO_PIN_RESET)
 8000b32:	687b      	ldr	r3, [r7, #4]
 8000b34:	689a      	ldr	r2, [r3, #8]
 8000b36:	887b      	ldrh	r3, [r7, #2]
 8000b38:	4013      	ands	r3, r2
 8000b3a:	2b00      	cmp	r3, #0
 8000b3c:	d002      	beq.n	8000b44 <MCAL_GPIO_ReadPin+0x1e>
	{
		bitStatus = GPIO_PIN_SET;
 8000b3e:	2301      	movs	r3, #1
 8000b40:	73fb      	strb	r3, [r7, #15]
 8000b42:	e001      	b.n	8000b48 <MCAL_GPIO_ReadPin+0x22>
	}
	else
	{
		bitStatus = GPIO_PIN_RESET;
 8000b44:	2300      	movs	r3, #0
 8000b46:	73fb      	strb	r3, [r7, #15]
	}
	return bitStatus;
 8000b48:	7bfb      	ldrb	r3, [r7, #15]
}
 8000b4a:	4618      	mov	r0, r3
 8000b4c:	3714      	adds	r7, #20
 8000b4e:	46bd      	mov	sp, r7
 8000b50:	bc80      	pop	{r7}
 8000b52:	4770      	bx	lr

08000b54 <MCAL_GPIO_WritePin>:
 * @param [in]    -value: pin value
 * @retval        -none
 * Note           -none
 */
void MCAL_GPIO_WritePin(GPIO_Typedef *GPIOx,uint16_t PinNumber,uint8_t value)
{
 8000b54:	b480      	push	{r7}
 8000b56:	b083      	sub	sp, #12
 8000b58:	af00      	add	r7, sp, #0
 8000b5a:	6078      	str	r0, [r7, #4]
 8000b5c:	460b      	mov	r3, r1
 8000b5e:	807b      	strh	r3, [r7, #2]
 8000b60:	4613      	mov	r3, r2
 8000b62:	707b      	strb	r3, [r7, #1]

	if(value !=  GPIO_PIN_RESET)
 8000b64:	787b      	ldrb	r3, [r7, #1]
 8000b66:	2b00      	cmp	r3, #0
 8000b68:	d003      	beq.n	8000b72 <MCAL_GPIO_WritePin+0x1e>
		//		  Bits 15:0 BSy: Port x Set bit y (y= 0 .. 15)
		//		  These bits are write-only and can be accessed in Word mode only.
		//		  0: No action on the corresponding ODRx bit
		//	      1: Set the corresponding ODRx bit

		GPIOx->BSRR = (uint32_t) PinNumber;
 8000b6a:	887a      	ldrh	r2, [r7, #2]
 8000b6c:	687b      	ldr	r3, [r7, #4]
 8000b6e:	611a      	str	r2, [r3, #16]
		//		  0: No action on the corresponding ODRx bit
		//		  1: Reset the corresponding ODRx bit
		//		  Note: If both BSx and BRx are set, BSx has priority
		GPIOx->BRR = (uint32_t) PinNumber;
	}
}
 8000b70:	e002      	b.n	8000b78 <MCAL_GPIO_WritePin+0x24>
		GPIOx->BRR = (uint32_t) PinNumber;
 8000b72:	887a      	ldrh	r2, [r7, #2]
 8000b74:	687b      	ldr	r3, [r7, #4]
 8000b76:	615a      	str	r2, [r3, #20]
}
 8000b78:	bf00      	nop
 8000b7a:	370c      	adds	r7, #12
 8000b7c:	46bd      	mov	sp, r7
 8000b7e:	bc80      	pop	{r7}
 8000b80:	4770      	bx	lr

08000b82 <MCAL_GPIO_WritePort>:
 * @param [in]    -value: port value
 * @retval        -none
 * Note           -none
 */
void MCAL_GPIO_WritePort(GPIO_Typedef *GPIOx,uint16_t value)
{
 8000b82:	b480      	push	{r7}
 8000b84:	b083      	sub	sp, #12
 8000b86:	af00      	add	r7, sp, #0
 8000b88:	6078      	str	r0, [r7, #4]
 8000b8a:	460b      	mov	r3, r1
 8000b8c:	807b      	strh	r3, [r7, #2]
	GPIOx->ODR =(uint32_t)value;
 8000b8e:	887a      	ldrh	r2, [r7, #2]
 8000b90:	687b      	ldr	r3, [r7, #4]
 8000b92:	60da      	str	r2, [r3, #12]
}
 8000b94:	bf00      	nop
 8000b96:	370c      	adds	r7, #12
 8000b98:	46bd      	mov	sp, r7
 8000b9a:	bc80      	pop	{r7}
 8000b9c:	4770      	bx	lr
	...

08000ba0 <__libc_init_array>:
 8000ba0:	b570      	push	{r4, r5, r6, lr}
 8000ba2:	2500      	movs	r5, #0
 8000ba4:	4e0c      	ldr	r6, [pc, #48]	; (8000bd8 <__libc_init_array+0x38>)
 8000ba6:	4c0d      	ldr	r4, [pc, #52]	; (8000bdc <__libc_init_array+0x3c>)
 8000ba8:	1ba4      	subs	r4, r4, r6
 8000baa:	10a4      	asrs	r4, r4, #2
 8000bac:	42a5      	cmp	r5, r4
 8000bae:	d109      	bne.n	8000bc4 <__libc_init_array+0x24>
 8000bb0:	f000 f81a 	bl	8000be8 <_init>
 8000bb4:	2500      	movs	r5, #0
 8000bb6:	4e0a      	ldr	r6, [pc, #40]	; (8000be0 <__libc_init_array+0x40>)
 8000bb8:	4c0a      	ldr	r4, [pc, #40]	; (8000be4 <__libc_init_array+0x44>)
 8000bba:	1ba4      	subs	r4, r4, r6
 8000bbc:	10a4      	asrs	r4, r4, #2
 8000bbe:	42a5      	cmp	r5, r4
 8000bc0:	d105      	bne.n	8000bce <__libc_init_array+0x2e>
 8000bc2:	bd70      	pop	{r4, r5, r6, pc}
 8000bc4:	f856 3025 	ldr.w	r3, [r6, r5, lsl #2]
 8000bc8:	4798      	blx	r3
 8000bca:	3501      	adds	r5, #1
 8000bcc:	e7ee      	b.n	8000bac <__libc_init_array+0xc>
 8000bce:	f856 3025 	ldr.w	r3, [r6, r5, lsl #2]
 8000bd2:	4798      	blx	r3
 8000bd4:	3501      	adds	r5, #1
 8000bd6:	e7f2      	b.n	8000bbe <__libc_init_array+0x1e>
 8000bd8:	08000c2c 	.word	0x08000c2c
 8000bdc:	08000c2c 	.word	0x08000c2c
 8000be0:	08000c2c 	.word	0x08000c2c
 8000be4:	08000c30 	.word	0x08000c30

08000be8 <_init>:
 8000be8:	b5f8      	push	{r3, r4, r5, r6, r7, lr}
 8000bea:	bf00      	nop
 8000bec:	bcf8      	pop	{r3, r4, r5, r6, r7}
 8000bee:	bc08      	pop	{r3}
 8000bf0:	469e      	mov	lr, r3
 8000bf2:	4770      	bx	lr

08000bf4 <_fini>:
 8000bf4:	b5f8      	push	{r3, r4, r5, r6, r7, lr}
 8000bf6:	bf00      	nop
 8000bf8:	bcf8      	pop	{r3, r4, r5, r6, r7}
 8000bfa:	bc08      	pop	{r3}
 8000bfc:	469e      	mov	lr, r3
 8000bfe:	4770      	bx	lr
